(dp0
S'palm_pose_world'
p1
(lp2
(lp3
F0.32286219156710455
aF-0.5298171151034683
aF0.368558523650545
aF0.8790385335868705
aF0.3845809379172995
aF0.2790006161206402
aF-0.03933719441441921
aa(lp4
F0.3215302951336428
aF-0.5244223584077446
aF0.36584394421535466
aF0.775271995996025
aF0.5576886806718966
aF0.2962141463767463
aF-0.013922900598441267
aa(lp5
F0.3188354263271478
aF-0.519556229006195
aF0.36121506223585215
aF0.7194361153568608
aF0.6225044309880283
aF0.30801261290684084
aF-0.005304678199609597
aa(lp6
F0.31321923874897195
aF-0.5096700960347231
aF0.35217606159683984
aF0.6098863399247049
aF0.7187648811922301
aF0.3334235840472716
aF0.01563366684557664
aa(lp7
F0.3080813398744758
aF-0.5017196449058948
aF0.34382410728483215
aF0.5575432956942837
aF0.7507930454524803
aF0.35335369126182575
aF0.02442222754354983
aa(lp8
F0.2991947568227349
aF-0.48832117893175664
aF0.32905326913915733
aF0.4649770436540394
aF0.7942530867171824
aF0.38801931766611675
aF0.04898359146590428
aa(lp9
F0.2926624573487486
aF-0.47951802744129585
aF0.31678370114173465
aF0.4257827477274095
aF0.8021039178163927
aF0.41389517642165274
aF0.06347550469417215
aa(lp10
F0.28482303265730896
aF-0.47107843513773257
aF0.29739623845992696
aF0.3976815890997991
aF0.8010268025430921
aF0.4411904504978402
aF0.0745412750639629
aa(lp11
F0.2772448901892347
aF-0.4625358247291394
aF0.2775431269141337
aF0.37562781812492857
aF0.7967198874468625
aF0.4657928698686432
aF0.08472405547952505
aa(lp12
F0.27237076538331256
aF-0.45569404780886424
aF0.26587773311732016
aF0.3525078878283577
aF0.798373090030091
aF0.47863130757429656
aF0.09618040104050987
aa(lp13
F0.26385484007383103
aF-0.44247081889248585
aF0.2473437526143404
aF0.31307502534476056
aF0.7964438918304949
aF0.5023906685471679
aF0.12355068525913644
aa(lp14
F0.2572980014915391
aF-0.4328343911455496
aF0.23370629853726932
aF0.30168395764397443
aF0.7871023166541538
aF0.5202172585160988
aF0.1372251316629989
aa(lp15
F0.24576006151855967
aF-0.41543070823136174
aF0.2124682116350138
aF0.28332185436953083
aF0.7737519470887738
aF0.5446378180146669
aF0.15622515290811625
aa(lp16
F0.2380355040331426
aF-0.40280487815076316
aF0.19766793083837675
aF0.2811260204688297
aF0.7627162161070393
aF0.5603459802299647
aF0.15888523135533736
aa(lp17
F0.22911538627934638
aF-0.3843158917267767
aF0.18071712555451638
aF0.2698522489880198
aF0.7504360278536605
aF0.5797868824691725
aF0.16695119865399533
aa(lp18
F0.22553060757115656
aF-0.37410597734277834
aF0.17276615903216608
aF0.2649556124960829
aF0.7436875007378208
aF0.5900715498308591
aF0.16894670974412948
aa(lp19
F0.22187322451384875
aF-0.36145905058084643
aF0.16487785785148115
aF0.25264535822395334
aF0.7368505905389992
aF0.6013764377272283
aF0.1776736061904742
aa(lp20
F0.2203132700662698
aF-0.3551545813594555
aF0.1611686523140043
aF0.24753559950044157
aF0.7333531647813405
aF0.6069216003092115
aF0.18045895312578678
aa(lp21
F0.21861518907349917
aF-0.34903012268946987
aF0.15783243060265437
aF0.24334055064119944
aF0.7300552988918876
aF0.6117710182377852
aF0.1831416343102186
aa(lp22
F0.2167561803926384
aF-0.34335315577263364
aF0.15481348507094606
aF0.24005299222952656
aF0.7268453638481464
aF0.6161535180219568
aF0.18554034656449414
aa(lp23
F0.2157446069718402
aF-0.3406697828911235
aF0.1537601050098668
aF0.2365036650079628
aF0.7253494760581641
aF0.617604417856826
aF0.19104694989368246
aa(lp24
F0.2142772288173137
aF-0.3368617425402569
aF0.15190342581833788
aF0.2341733842024654
aF0.7228289622255233
aF0.6202951276221883
aF0.19471792970168586
aa(lp25
F0.21355126794383852
aF-0.3354572000159912
aF0.15154110889113503
aF0.23145261115750765
aF0.721838935877381
aF0.6206072701450221
aF0.20056135141877487
aa(lp26
F0.21209763242930507
aF-0.33194773371171715
aF0.1502845769901375
aF0.22717370480605306
aF0.7194694618073546
aF0.6221000701242991
aF0.2091585621548157
aa(lp27
F0.21131377963159062
aF-0.3295419814467902
aF0.14925052554377538
aF0.22558397914632258
aF0.7179243131093264
aF0.6236017553910088
aF0.2117012037572433
aa(lp28
F0.21017053238749425
aF-0.32631783821446925
aF0.1480299821857713
aF0.2226579601624197
aF0.7157891329628653
aF0.6252189143348712
aF0.21718807303004678
aa(lp29
F0.20968722783446983
aF-0.324918929620149
aF0.14750652119467203
aF0.22149869806584685
aF0.7148362633024541
aF0.6258937360135013
aF0.21955517448236322
aa(lp30
F0.20888842716436418
aF-0.3237291806545193
aF0.14710283184105194
aF0.22131099218356504
aF0.7136821948644676
aF0.6259667613796143
aF0.22325945247643836
aa(lp31
F0.20806055638584992
aF-0.3220728112838913
aF0.1464190592782881
aF0.22137228344145923
aF0.7122959493850266
aF0.6265755184950311
aF0.22590243964216244
aa(lp32
F0.20740702728093316
aF-0.32099437333119146
aF0.14604703088029317
aF0.22128556501199717
aF0.7112850284941655
aF0.6267022566289813
aF0.22880250980598515
aa(lp33
F0.20669243450695454
aF-0.31938043655091747
aF0.14537382251814807
aF0.22145270643618883
aF0.7099903401476575
aF0.6274598237096598
aF0.23057880505229308
aa(lp34
F0.2061340846981322
aF-0.31831933845692356
aF0.1449942863333469
aF0.2214592179043515
aF0.7090541427973515
aF0.6277377023900389
aF0.23268737478681764
aa(lp35
F0.20508274213077107
aF-0.3160114528845011
aF0.14409632058528113
aF0.2218067463629874
aF0.7071261086873014
aF0.6286294314545948
aF0.23579540196893822
aa(lp36
F0.20461925526008876
aF-0.31494830463357054
aF0.14367189121507631
aF0.22201278641697078
aF0.7062624622855
aF0.6290542727820992
aF0.23705353599636414
aa(lp37
F0.2038666661851286
aF-0.3132968424946554
aF0.14306310267681352
aF0.22213182384982297
aF0.7049296521934334
aF0.6296593438468607
aF0.23929218331975904
aa(lp38
F0.20354518303639169
aF-0.31258400725027813
aF0.14280090406427887
aF0.22215544736862367
aF0.7043728366113712
aF0.6299122324676789
aF0.24024246842738278
aa(lp39
F0.202991651953448
aF-0.3114693622679547
aF0.14241985899347143
aF0.22301375341076138
aF0.703292868015174
aF0.6301572483464751
aF0.24196249698049094
aa(lp40
F0.202395426131147
aF-0.30999239901890385
aF0.141849344326619
aF0.22398660886308513
aF0.702032613677509
aF0.6308302971968349
aF0.24296778494626325
aa(lp41
F0.20191787212577514
aF-0.3089473269495468
aF0.14147923494684306
aF0.2247800587812037
aF0.7010728294565082
aF0.6311301816908752
aF0.24422429594740858
aa(lp42
F0.20143709750814004
aF-0.30780514726957836
aF0.14104389719646682
aF0.22554168789882412
aF0.7001316239208571
aF0.6315583978070892
aF0.24511353770250094
aa(lp43
F0.20103635002956702
aF-0.3069281254492505
aF0.14072869935057641
aF0.2263328442827726
aF0.6993190202725362
aF0.6317593990459326
aF0.24618369808143778
aa(lp44
F0.20032586281489015
aF-0.305312279056354
aF0.14014144564987943
aF0.22751211629978702
aF0.6979519374984583
aF0.6322508144684719
aF0.24770998664344251
aa(lp45
F0.2000212429875859
aF-0.304617163618613
aF0.13989340608021975
aF0.22800909638256803
aF0.6973706009182538
aF0.6324633159444547
aF0.2483470372810267
aa(lp46
F0.19950092795731192
aF-0.3034369959481784
aF0.1394805519426105
aF0.22891260074696657
aF0.6963661801590341
aF0.6328145653129631
aF0.24943714694836672
aa(lp47
F0.1992809755202927
aF-0.3029308126696102
aF0.13931799148983137
aF0.22931625567398237
aF0.695911400005909
aF0.6329902944807696
aF0.24988930613099294
aa(lp48
F0.1988853641129102
aF-0.30183457278802395
aF0.13898305723243645
aF0.23042514124977614
aF0.6948801853824135
aF0.6333111133160458
aF0.2509239247128777
aa(lp49
F0.19847989298141092
aF-0.3006602109368184
aF0.1385838424419579
aF0.23147893683395115
aF0.6938852255669349
aF0.6337222248517004
aF0.251668308038892
aa(lp50
F0.1981390649435549
aF-0.29973726272634776
aF0.1382831690116603
aF0.23253712251624334
aF0.693031157541143
aF0.6339120712150069
aF0.25256640175793216
aa(lp51
F0.19781292012745788
aF-0.29880397381521473
aF0.13797627756089362
aF0.23330213550236092
aF0.6922747451609769
aF0.6342352686304584
aF0.2531233193674436
aa(lp52
F0.19753267945540548
aF-0.29805371191123364
aF0.13773686388316847
aF0.23417256082772397
aF0.6915886078276325
aF0.6343785983810644
aF0.25383499206078614
aa(lp53
F0.19726606629447366
aF-0.2972974588599164
aF0.13749452357470957
aF0.2348016460265622
aF0.6909792541209193
aF0.6346309995825186
aF0.2542820319381778
aa(lp54
F0.19703629468221565
aF-0.2966878791804896
aF0.13730375639672854
aF0.2355157817360601
aF0.6904273962534301
aF0.6347402685666209
aF0.25484724545487136
aa(lp55
F0.19663139487471917
aF-0.2955799744708288
aF0.13696509449726044
aF0.23667984518514684
aF0.689460984502597
aF0.635049846620126
aF0.2556127814480317
aa(lp56
F0.19646058917029638
aF-0.29510609515960673
aF0.13683443717511398
aF0.23719046923193365
aF0.6890240271262803
aF0.6352043116192353
aF0.25593369033511665
aa(lp57
F0.1961932253574561
aF-0.2940104477300313
aF0.13655000095287945
aF0.23837494421294125
aF0.6880310946788695
aF0.6355055545054176
aF0.2567553094275472
aa(lp58
F0.19592888846399534
aF-0.29293870873611877
aF0.13624521921048277
aF0.23926408500307497
aF0.6872038460611805
aF0.6358353226079873
aF0.25732666809011384
aa(lp59
F0.19570401477838206
aF-0.29206756636084136
aF0.1360033884502998
aF0.2402268301535254
aF0.6864684524344404
aF0.6359802695285098
aF0.2580333905855941
aa(lp60
F0.1954881532397722
aF-0.2912016549338941
aF0.13576293525022773
aF0.24092988062679313
aF0.685813182877503
aF0.6362404350321307
aF0.258478586429733
aa(lp61
F0.19530225479916544
aF-0.29049383861248296
aF0.13557067501596134
aF0.24171974666237722
aF0.6852226379178867
aF0.6363504671037029
aF0.25903587314352455
aa(lp62
F0.1951251593392342
aF-0.28979234694121103
aF0.1353811439555157
aF0.24229613158067423
aF0.6846946795651009
aF0.6365544266430396
aF0.2593920629422486
aa(lp63
F0.19497593017685286
aF-0.2892173978738398
aF0.1352449789605571
aF0.24299162782159875
aF0.6841701943105187
aF0.6366839802872714
aF0.25980708857010487
aa(lp64
F0.19470746723537813
aF-0.28818150564268463
aF0.1349901659293556
aF0.24407655112921067
aF0.6833095869408397
aF0.6369567936736236
aF0.2603856535537737
aa(lp65
F0.19459418242001122
aF-0.2877386920981663
aF0.13489174817926883
aF0.24454539403512132
aF0.6829255718576074
aF0.6370891504651753
aF0.2606292921348797
aa(lp66
F0.19443346076131723
aF-0.2866923532701258
aF0.1346433437678997
aF0.24551144345898482
aF0.6821235885177614
aF0.637285264121639
aF0.26134083732120855
aa(lp67
F0.1942766252930882
aF-0.28568265765852024
aF0.13440086900108783
aF0.24625160928446327
aF0.6814127207018467
aF0.6375652557796407
aF0.26181557175454706
aa(lp68
F0.1941465860410081
aF-0.2848482570902697
aF0.1342228953310461
aF0.24713904854526467
aF0.6807215240320299
aF0.6377313381197921
aF0.2623723266344817
aa(lp69
F0.19402377114029923
aF-0.28403139559021023
aF0.1340629882164413
aF0.24782326578727853
aF0.6800635370761038
aF0.6380250110823822
aF0.2627190509030375
aa(lp70
F0.19391484210132234
aF-0.283353354340652
aF0.13392480621778588
aF0.24854591334589143
aF0.6795117441237364
aF0.6381514391937122
aF0.26315671986853806
aa(lp71
F0.19380625002153545
aF-0.2826909226544167
aF0.1337729361794903
aF0.24902680521158993
aF0.6790676601079886
aF0.6383082701128404
aF0.26346786442965536
aa(lp72
F0.1937121072505368
aF-0.28214057249658453
aF0.13364712254541494
aF0.24957291511329519
aF0.6786721440796138
aF0.6383631725727983
aF0.2638369587359277
aa(lp73
F0.1936302315790793
aF-0.28160369565942217
aF0.1335568408119594
aF0.2500487546321492
aF0.6782212027677524
aF0.6385707391872882
aF0.26404361661849496
aa(lp74
F0.1935559943259974
aF-0.2811563130288481
aF0.1334754109534566
aF0.2505390226277417
aF0.6778558843583141
aF0.6386564849868921
aF0.2643094632542157
aa(lp75
F0.19342549007415205
aF-0.27916324797673364
aF0.1330813577660146
aF0.252115090021772
aF0.676529070284292
aF0.6390210009027554
aF0.26532726744310675
aa(lp76
F0.1933639884813961
aF-0.2783009149716941
aF0.13290606911802944
aF0.25273513546665216
aF0.6759936475115179
aF0.639169039335788
aF0.2657451391451828
aa(lp77
F0.1932548280201477
aF-0.27682655547176344
aF0.1326161413650556
aF0.25385352002154377
aF0.6750633329903678
aF0.6394307921584075
aF0.2664134922714675
aa(lp78
F0.19321198594353872
aF-0.27619747724680377
aF0.13251542881789063
aF0.2543687518457239
aF0.6746124037117355
aF0.6395907529716109
aF0.2666801671589599
aa(lp79
F0.19313022241709552
aF-0.275122859269698
aF0.1323276223382535
aF0.2552109883580152
aF0.6739168990778047
aF0.6397910243862168
aF0.2671531577083011
aa(lp80
F0.19309445041341602
aF-0.27466390483444786
aF0.1322469028440641
aF0.2555658882022741
aF0.6736229106683331
aF0.6398755434154101
aF0.2673528379294659
aa(lp81
F0.19306935346090007
aF-0.2742509448945403
aF0.13220478011531742
aF0.25593132899719084
aF0.6732801613194562
aF0.6400226949366237
aF0.2675143532176177
aa(lp82
F0.1930459391847356
aF-0.27386721080021253
aF0.13216723760429513
aF0.2562377635219366
aF0.6729646481265694
aF0.6401828347138536
aF0.2676317041288146
aa(lp83
F0.19302171864119244
aF-0.2735440604540121
aF0.13212628168293575
aF0.2565459031528416
aF0.6727302470973558
aF0.6402405854075279
aF0.26778761549565594
aa(lp84
F0.1930034836764051
aF-0.2717729140332716
aF0.13182208305169943
aF0.2581676019645485
aF0.6714892220046614
aF0.640654763757084
aF0.2683527300081068
aa(lp85
F0.192989341155837
aF-0.27100478801609607
aF0.13167528591194294
aF0.25884664477227054
aF0.6709781714776007
aF0.6408368200177951
aF0.26854213449697883
aa(lp86
F0.19296510372882653
aF-0.2696922367918166
aF0.13145007259451646
aF0.26005274260711553
aF0.6700716192352828
aF0.6411718279735511
aF0.26884062782804696
aa(lp87
F0.1929523305574764
aF-0.26912949992643814
aF0.131344282670273
aF0.2605886887471359
aF0.6696813022306194
aF0.6413212436862948
aF0.268937820204623
aa(lp88
F0.19293418713521437
aF-0.26817475227379745
aF0.13120231301829424
aF0.26146727613310133
aF0.6690086889105791
aF0.6415708308770726
aF0.269163717171144
aa(lp89
F0.19292787427753158
aF-0.267767640302734
aF0.13114933736132622
aF0.2618505608590877
aF0.6687028304386199
aF0.641694352762139
aF0.26925669160549975
aa(lp90
F0.19290794263502642
aF-0.26707421375740614
aF0.1310320355509495
aF0.2624058240069933
aF0.6682998174783421
aF0.6417918066839222
aF0.26948434900567525
aa(lp91
F0.1928941865193834
aF-0.2667738746145813
aF0.1309545831928148
aF0.2626651772211286
aF0.6681468164050604
aF0.6418239314079659
aF0.2695345571076155
aa(lp92
F0.19287076745816298
aF-0.26626179830527164
aF0.13082866442040197
aF0.263111820976604
aF0.6678844532406499
aF0.6418762337045084
aF0.2696246045655498
aa(lp93
F0.19291637927981858
aF-0.26542480089765297
aF0.1306698081164452
aF0.26405916342978974
aF0.6672669554693438
aF0.6421989992448672
aF0.2694587421412109
aa(lp94
F0.1929603365220309
aF-0.264703150909352
aF0.1305440552990856
aF0.2649662514824308
aF0.6667123822962028
aF0.6424279950837064
aF0.2693951669963675
aa(lp95
F0.1930096355882649
aF-0.2640115128949632
aF0.13047217631042526
aF0.2656948450803924
aF0.6660817814964088
aF0.642830576363141
aF0.2692771058759142
aa(lp96
F0.1930514488480311
aF-0.26342413179075863
aF0.13040719284586397
aF0.2664388345415844
aF0.6655574335060803
aF0.6430880255115723
aF0.26922377606101033
aa(lp97
F0.1930819549311091
aF-0.26286492376237663
aF0.13032291957599149
aF0.26697567670552114
aF0.6651413760045197
aF0.6433296767150617
aF0.2691428338859079
aa(lp98
F0.19310945177166974
aF-0.262389788528425
aF0.1302521283549774
aF0.26754441963661985
aF0.6647782348819071
aF0.6434818803279378
aF0.26911141120030857
aa(lp99
F0.19313324900745965
aF-0.26193631581039506
aF0.1301836544424083
aF0.26797923117032585
aF0.6644410710854235
aF0.6436785084929895
aF0.2690412095208774
aa(lp100
F0.1931543464745499
aF-0.2615509473713331
aF0.13012587021381694
aF0.26844374566776186
aF0.6641491585015543
aF0.6437997051763363
aF0.26900890373443337
aa(lp101
F0.19318053021844284
aF-0.26118046129447636
aF0.13009539788277172
aF0.2688341955503286
aF0.663787680948899
aF0.6440420669656379
aF0.26893104302389337
aa(lp102
F0.19332643616206296
aF-0.26033321514166263
aF0.1300148943867258
aF0.26963734531043104
aF0.6632455905607051
aF0.6443247026874471
aF0.2687873994860212
aa(lp103
F0.19356517401030135
aF-0.2588428475377393
aF0.12987238926028716
aF0.2709334262033396
aF0.6623454657245814
aF0.644856671158972
aF0.26842771142632893
aa(lp104
F0.19366338040710104
aF-0.2582071630855109
aF0.12980107885636327
aF0.27149038228341993
aF0.6619793148736801
aF0.6450671015072583
aF0.2682625459507911
aa(lp105
F0.1938334911880801
aF-0.25711942800192467
aF0.12970621945232885
aF0.27245296558694443
aF0.661314802788821
aF0.6454632634422923
aF0.2679725521423565
aa(lp106
F0.19390730888204685
aF-0.2566538298565186
aF0.12967114483727846
aF0.2728811579868275
aF0.6610036096854043
aF0.6456617078125463
aF0.2678265495861455
aa(lp107
F0.19402902142995154
aF-0.25585989496346145
aF0.12960938053263885
aF0.27360831304559236
aF0.6605098351275971
aF0.6459601049068528
aF0.2675832423766246
aa(lp108
F0.19408229689243334
aF-0.2555202786093
aF0.12958450256284193
aF0.27391994165305467
aF0.6602798687959808
aF0.6461077755389156
aF0.26747542469487506
aa(lp109
F0.19412879116731527
aF-0.2552123593466457
aF0.12954727389504406
aF0.2742370515768054
aF0.6600626960058402
aF0.646250831395556
aF0.26734086818987324
aa(lp110
F0.19417072822012382
aF-0.2549287574066839
aF0.12951346760539267
aF0.27449427679304444
aF0.6598635777429808
aF0.6463944559329144
aF0.2672211782686549
aa(lp111
F0.19434544160233705
aF-0.25416433366574737
aF0.12944630580573677
aF0.2750590659973862
aF0.6595157192246827
aF0.6465820610603534
aF0.267045248269166
aa(lp112
F0.1945003290388289
aF-0.25346161940254713
aF0.1293792220195151
aF0.2755008569708199
aF0.6592175850151382
aF0.6467662494945378
aF0.26687988296220944
aa(lp113
F0.19476377135369696
aF-0.2522555294323443
aF0.12929755955403135
aF0.2762596874930169
aF0.6586991868900708
aF0.6471004895023652
aF0.26656504411197585
aa(lp114
F0.19486886688416802
aF-0.2517402988576574
aF0.12923490499212242
aF0.2766014734017055
aF0.658524719624543
aF0.6472008732696315
aF0.26639791326969725
aa(lp115
F0.1950480386910523
aF-0.2508609882799775
aF0.12913549821618409
aF0.2771681897897513
aF0.658231486763482
aF0.6473639318713508
aF0.2661372655489525
aa(lp116
F0.195123838963148
aF-0.2504859190228801
aF0.12908766775059005
aF0.27740469306923876
aF0.6581077195664178
aF0.6474326637363506
aF0.2660297194628905
aa(lp117
F0.19525317777517454
aF-0.24984574205729154
aF0.12901173128350127
aF0.27781111914730916
aF0.6578958924639536
aF0.647547838468321
aF0.26584915582371677
aa(lp118
F0.1953093704095475
aF-0.249573398942331
aF0.1289801368204546
aF0.2779748283855967
aF0.6577987131620477
aF0.6476026621365345
aF0.2657849501759372
aa(lp119
F0.19541258519383106
aF-0.24910800394661553
aF0.12896467401293837
aF0.2782826048061602
aF0.6575616119721123
aF0.6477609784254602
aF0.26566375957632266
aa(lp120
F0.19561987028405128
aF-0.24838934726965517
aF0.12893823488305178
aF0.2785419331320704
aF0.6573043664399444
aF0.647977714751683
aF0.26549998593449864
aa(lp121
F0.19580259026532895
aF-0.2477614336729531
aF0.12890920843962406
aF0.2788166033203804
aF0.6571151271428586
aF0.6480991999817589
aF0.26538356839848715
aa(lp122
F0.1959639025217394
aF-0.24716731149149065
aF0.12886944559659355
aF0.278995170430586
aF0.656940343219056
aF0.6482669496229763
aF0.2652188574633388
aa(lp123
F0.19610877118155753
aF-0.24665821157547527
aF0.12883788945911012
aF0.27922657875057
aF0.656797620018756
aF0.6483553615269095
aF0.26511267271909145
aa(lp124
F0.19623876979554503
aF-0.24617910594005454
aF0.12880674181673862
aF0.27936973534101683
aF0.6566579189999153
aF0.6484867868972295
aF0.2649864442002612
aa(lp125
F0.1963552116582498
aF-0.24576651910768915
aF0.12878140606193497
aF0.2795586829458352
aF0.656542971575999
aF0.6485579531540695
aF0.2648978117394534
aa(lp126
F0.19655162800672005
aF-0.2450458183475329
aF0.12873920777098288
aF0.2798353669166248
aF0.6563585361377982
aF0.6486949181769875
aF0.26472729854141647
aa(lp127
F0.19663565569911168
aF-0.24473814460030208
aF0.12872034997817758
aF0.27995216931008077
aF0.6562734014855347
aF0.6487611958095639
aF0.2646524441846904
aa(lp128
F0.1967778070274293
aF-0.24421286819470475
aF0.12868934986552166
aF0.2801550758658559
aF0.6561395301731769
aF0.6488602837362585
aF0.2645267143417115
aa(lp129
F0.19701304317538954
aF-0.24348168947864512
aF0.12865628647487795
aF0.28027722180708015
aF0.6560012965423676
aF0.649014851777345
aF0.26436092760328317
aa(lp130
F0.1972235848143466
aF-0.24284252599287803
aF0.12862938987770897
aF0.28044619475014776
aF0.6558889821343931
aF0.649105008000325
aF0.26423902731006654
aa(lp131
F0.1975795075308871
aF-0.24172525307730403
aF0.12858625362279427
aF0.2806575455090439
aF0.6557098101489985
aF0.6492907487813844
aF0.2640028609127419
aa(lp132
F0.19773114519156323
aF-0.24124897083234068
aF0.1285680288028153
aF0.28074756988585725
aF0.6556268854261801
aF0.6493768908821493
aF0.26390119874260826
aa(lp133
F0.19798953591185567
aF-0.2404347650902896
aF0.1285426025211595
aF0.28091532830160376
aF0.655479910838378
aF0.6495256207791906
aF0.2637216956640488
aa(lp134
F0.1981025806008058
aF-0.2400863603009462
aF0.1285408677402559
aF0.2809999110712712
aF0.6553790055370715
aF0.6496256285313757
aF0.2636360215038752
aa(lp135
F0.1982066915840806
aF-0.23977059077001842
aF0.12854430093168587
aF0.2810763983369862
aF0.6552594824115215
aF0.649747383650748
aF0.2635515252217307
aa(lp136
F0.1983007535741185
aF-0.23948129344629013
aF0.12854923202908947
aF0.28112919553600924
aF0.6551445306474437
aF0.649873323368033
aF0.26347045935854935
aa(lp137
F0.19838246766898898
aF-0.23923229699682774
aF0.12854984548393808
aF0.2812029193554818
aF0.6550774591660227
aF0.6499305627267133
aF0.2634173575759199
aa(lp138
F0.19886099870641827
aF-0.23786800770600078
aF0.1285155228590704
aF0.28135623906110013
aF0.6549273913431817
aF0.6501223870744073
aF0.26315330253387065
aa(lp139
F0.19906128041047408
aF-0.23728219733927453
aF0.1284891963104254
aF0.28141860503792965
aF0.6548804071484368
aF0.6501958936307864
aF0.26302190208662585
aa(lp140
F0.1992449244860929
aF-0.23675377304242368
aF0.1284752637178977
aF0.2814567331467383
aF0.6548054002023348
aF0.6502966064805163
aF0.2629188445740443
aa(lp141
F0.19941273440026405
aF-0.23626898084760503
aF0.12847549627850405
aF0.2814631698736648
aF0.6547065767165329
aF0.6504335487485888
aF0.2628192935670902
aa(lp142
F0.19956101471722992
aF-0.23584993735669033
aF0.12847291262176813
aF0.2815187027315808
aF0.6546493411204478
aF0.6504943779282159
aF0.2627518305676957
aa(lp143
F0.19981145089516525
aF-0.23512140540427898
aF0.12846874643895595
aF0.28157452147609713
aF0.6545718366191458
aF0.6506008369741944
aF0.2626214966239875
aa(lp144
F0.1999090563816376
aF-0.23484019463587166
aF0.12847105053981425
aF0.28159558847690475
aF0.6545219423597317
aF0.6506641643727008
aF0.2625663663174794
aa(lp145
F0.2000099895731901
aF-0.23455429540716533
aF0.12847827837904197
aF0.2816209103719495
aF0.6544438145993788
aF0.6507566605239014
aF0.2625047145436971
aa(lp146
F0.20010138620108914
aF-0.23429251003488635
aF0.12848545463149555
aF0.2816257944842567
aF0.6543672791882923
aF0.6508552394280485
aF0.26244586702381245
aa(lp147
F0.20036486035580556
aF-0.2335844996128845
aF0.12847674837894557
aF0.28166128208679847
aF0.6543192658931919
aF0.6509308384327215
aF0.26233997795130215
aa(lp148
F0.20080293560762413
aF-0.232354082248436
aF0.12843668195186678
aF0.28167211958656874
aF0.6543171938401182
aF0.6510209589418611
aF0.26210978217384895
aa(lp149
F0.20099033427003027
aF-0.231829735519325
aF0.12842345982398598
aF0.2816708647807244
aF0.6543042556064718
aF0.6510705624789419
aF0.2620202047596591
aa(lp150
F0.201164276693849
aF-0.23135451544759728
aF0.12842876373076598
aF0.2816577672324822
aF0.6542370577958102
aF0.6511738800293151
aF0.2619453231723399
aa(lp151
F0.20132127221011764
aF-0.23091949133181403
aF0.12843568324013546
aF0.2816216941242448
aF0.6541671010571817
aF0.6512906492387011
aF0.2618685080479602
aa(lp152
F0.20145954534943764
aF-0.23054317937171512
aF0.1284382293007187
aF0.2816348701924808
aF0.6541385110690829
aF0.6513340759899149
aF0.26181774134376656
aa(lp153
F0.20169070040433917
aF-0.22989067766541815
aF0.1284327586927015
aF0.28163510037894707
aF0.6541281623424492
aF0.6513878374250837
aF0.26170957705002634
aa(lp154
F0.20178606786901698
aF-0.22961318869623604
aF0.12841536864829867
aF0.28164514559462933
aF0.6541456545140925
aF0.6513882937992608
aF0.2616539037442354
aa(lp155
F0.2018764480178319
aF-0.2293610785237482
aF0.12841239734938734
aF0.2816379434996745
aF0.6541185426814681
aF0.6514347459831555
aF0.261613785239632
aa(lp156
F0.20238520608802185
aF-0.22801352287751528
aF0.1284042609057132
aF0.28154642844032984
aF0.6541057233687986
aF0.6515589667160983
aF0.2614349329766879
aa(lp157
F0.20260287378928768
aF-0.2274347432016654
aF0.12840652695482113
aF0.2814982927213121
aF0.6540793557755056
aF0.6516393585357448
aF0.2613523559304738
aa(lp158
F0.2029630862248997
aF-0.2264485880410332
aF0.12837816394501708
aF0.28144237372994557
aF0.6541254388671567
aF0.6516828299813222
aF0.26118880068570766
aa(lp159
F0.2031160456751375
aF-0.22602857029347795
aF0.1283625228809069
aF0.2814078801086772
aF0.6541495896442883
aF0.6516974014250315
aF0.2611291181710898
aa(lp160
F0.20325646415025614
aF-0.22564759706732307
aF0.12835181057249478
aF0.2813574783907082
aF0.6541436033946291
aF0.6517440969763659
aF0.26108187901111346
aa(lp161
F0.2033830336157936
aF-0.2252992902191957
aF0.12834307905252923
aF0.2812991578178681
aF0.6541302779756167
aF0.6518039976524297
aF0.2610285652774655
aa(lp162
F0.20349526590140538
aF-0.2249975325023148
aF0.12833553956558397
aF0.2812845625063395
aF0.6541381797885443
aF0.6518156807361385
aF0.2609953160212491
aa(lp163
F0.20359799803167916
aF-0.22471478040480847
aF0.128328632933131
aF0.2812399190041779
aF0.6541199709643609
aF0.651872446087114
aF0.26094728505295867
aa(lp164
F0.2036886633417169
aF-0.22447038638941563
aF0.1283225704315685
aF0.28122949481398746
aF0.654125544243331
aF0.6518824972508956
aF0.2609194385111455
aa(lp165
F0.20420520845762474
aF-0.22313280997477977
aF0.12829802493308837
aF0.2810799517157078
aF0.6541729801355909
aF0.651963572151549
aF0.2607590331923462
aa(lp166
F0.20442214835930966
aF-0.22255979844807997
aF0.12827837740204046
aF0.2810266442632099
aF0.654202627391063
aF0.6519933414877631
aF0.2606676623296615
aa(lp167
F0.2046152473866297
aF-0.2220451319735526
aF0.12824936746281124
aF0.28096927351407225
aF0.6542475319045297
aF0.6520016306622733
aF0.26059606280898123
aa(lp168
F0.20478912867469434
aF-0.22157413321319613
aF0.12822653217013613
aF0.2808873404059903
aF0.6542829704967311
aF0.6520291278142453
aF0.2605266070853757
aa(lp169
F0.204950968081461
aF-0.22116526503351058
aF0.12823373526906912
aF0.2808359517554029
aF0.6542856180101595
aF0.6520521909232943
aF0.26051763583072907
aa(lp170
F0.20509561313462996
aF-0.22078385299985662
aF0.12823456896902952
aF0.28076949914636096
aF0.6542786024593804
aF0.6521080147643543
aF0.26046714916279634
aa(lp171
F0.20522207936642414
aF-0.2204508964873822
aF0.1282243449104458
aF0.2807422798096453
aF0.6543050857635881
aF0.6521081597836841
aF0.2604295970405892
aa(lp172
F0.20544068657536751
aF-0.21987067519928163
aF0.1282289240945494
aF0.28064488285042694
aF0.6543302223940253
aF0.6521493294680741
aF0.2603683196281694
aa(lp173
F0.20553584967331426
aF-0.2196249949641272
aF0.128237676499937
aF0.28060857495631997
aF0.6543239720949566
aF0.652178812803977
aF0.26034931022082
aa(lp174
F0.2058149976584066
aF-0.21892608362002572
aF0.12824380817007278
aF0.2805215867661478
aF0.6543175694180974
aF0.6522495899070007
aF0.2602818283613847
aa(lp175
F0.20628126103843375
aF-0.21771879268295324
aF0.12823471365203343
aF0.2803209758687021
aF0.6543866196418491
aF0.6523182608280844
aF0.26015224218129634
aa(lp176
F0.20648126256333754
aF-0.217204191638536
aF0.12823949994697756
aF0.2802270878226407
aF0.6544014808215388
aF0.6523623362209047
aF0.26010548519672305
aa(lp177
F0.20681799037915793
aF-0.21632530497433897
aF0.1282344192300907
aF0.28008957412717195
aF0.6544550641045452
aF0.6524055239201941
aF0.260010445735536
aa(lp178
F0.20696266720854536
aF-0.21595036292119432
aF0.1282380323680499
aF0.2800263768482499
aF0.6544656686937262
aF0.6524370979238563
aF0.2599725947541623
aa(lp179
F0.2070938752428759
aF-0.21561183151200236
aF0.12824299658553068
aF0.2799696882205677
aF0.6544619195023975
aF0.6524813257171905
aF0.25993208572481585
aa(lp180
F0.20721054873821892
aF-0.21530240943112544
aF0.12823725171030245
aF0.27994729507418287
aF0.6544443461415838
aF0.6525367259649992
aF0.25986136890819905
aa(lp181
F0.2073157956003055
aF-0.2150323266678976
aF0.12823878855841528
aF0.27993827428166135
aF0.654435552561684
aF0.6525642368336143
aF0.25982414618593735
aa(lp182
F0.20741236539690885
aF-0.21478069702023875
aF0.12824311250380852
aF0.2799165442320556
aF0.6543989741936798
aF0.6526303187757391
aF0.2597737050860239
aa(lp183
F0.20768934925489727
aF-0.21408418543858887
aF0.12823772186399945
aF0.27983603690743075
aF0.654418887339543
aF0.6526704334607938
aF0.2597094869798118
aa(lp184
F0.20815870108991105
aF-0.21287716916668736
aF0.1282325738830638
aF0.279605849899681
aF0.6544866401004094
aF0.6527409448244028
aF0.25960944817494647
aa(lp185
F0.20836034329311476
aF-0.21236139373300691
aF0.1282390329100874
aF0.2795209799816532
aF0.654485145383155
aF0.6528003240200307
aF0.2595552988906786
aa(lp186
F0.20854214006702013
aF-0.21189548072135128
aF0.12824299359923041
aF0.27943880768555407
aF0.6544717320034578
aF0.652868955915165
aF0.25950497330477595
aa(lp187
F0.20870040546045412
aF-0.2114733736112481
aF0.12822624649817785
aF0.2793577279587948
aF0.6545052342646616
aF0.6528935943372536
aF0.2594457797368122
aa(lp188
F0.20884569463237518
aF-0.211102842032961
aF0.12822781561059513
aF0.2792979815471517
aF0.6545162300376263
aF0.6529161883532917
aF0.2594255058918246
aa(lp189
F0.20897808049747604
aF-0.21075851874621535
aF0.12823318628117547
aF0.2792169687120519
aF0.6544996085716359
aF0.6529814795205954
aF0.2593903123979822
aa(lp190
F0.20909516988535756
aF-0.21045848931914962
aF0.1282353199293397
aF0.2791730206338983
aF0.6545095995296797
aF0.652998379831301
aF0.25936986064564077
aa(lp191
F0.20929370266118807
aF-0.20993959447301797
aF0.12824062876621553
aF0.2790763334956779
aF0.6545398949547538
aF0.6530255659886508
aF0.25932901141297593
aa(lp192
F0.20957316339001394
aF-0.20922798405222962
aF0.12824078706447117
aF0.2789480883383763
aF0.6545342082091686
aF0.6531172028055832
aF0.25925056161129706
aa(lp193
F0.2098219217762527
aF-0.20860057208269317
aF0.12823853709755828
aF0.2788597234849828
aF0.6545588390782334
aF0.6531477797647978
aF0.25920640152347596
aa(lp194
F0.21004202562765636
aF-0.20802138876549575
aF0.12822117179921325
aF0.27874455803538406
aF0.6546003965760784
aF0.6531846391884054
aF0.25913243582464207
aa(lp195
F0.21024270532603379
aF-0.20751322125656776
aF0.1282211861844563
aF0.27866433149365244
aF0.6546209106306142
aF0.6532085908550902
aF0.25910652356019237
aa(lp196
F0.21042476882790168
aF-0.2070420791213334
aF0.1282264373334554
aF0.27856050246782915
aF0.654610602378561
aF0.653282271545976
aF0.25905844784947285
aa(lp197
F0.21058632282427595
aF-0.2066304969721879
aF0.1282278870166882
aF0.27849645601667283
aF0.6546289019447518
aF0.6532999501446208
aF0.25903648365780063
aa(lp198
F0.2108605992081684
aF-0.20591822127227194
aF0.12823330791728854
aF0.27835859971377286
aF0.6546718379935346
aF0.6533346855496024
aF0.2589885386679433
aa(lp199
F0.21097529686031183
aF-0.20561547962054744
aF0.12822427009550197
aF0.2783076817185133
aF0.6547059762470934
aF0.65333283783402
aF0.2589616225824853
aa(lp200
F0.2111727516818161
aF-0.20509765929836635
aF0.12822164765122018
aF0.278203217090811
aF0.6547559819865116
aF0.6533382893471782
aF0.25893368596245864
aa(lp201
F0.21145413817285494
aF-0.20438702033347175
aF0.12822155779533576
aF0.27806100552464313
aF0.6547545076293513
aF0.6534247271395288
aF0.25887204929907487
aa(lp202
F0.21170470631714575
aF-0.20375997862380005
aF0.12821883950213744
aF0.2779615415033484
aF0.6547811165564794
aF0.6534532396961183
aF0.25883959198078554
aa(lp203
F0.2119295995461786
aF-0.20318067363393622
aF0.12821467140073728
aF0.27783783292952946
aF0.6547939683250398
aF0.6535166650760948
aF0.2587797637103587
aa(lp204
F0.21212955360769273
aF-0.2026750040033353
aF0.12820512350456711
aF0.2777566354457603
aF0.6548376770774322
aF0.6535144289598642
aF0.25876197419046415
aa(lp205
F0.21247235913377036
aF-0.2017958719488714
aF0.12820769640313479
aF0.27757359381718655
aF0.6548892158156282
aF0.6535593365243731
aF0.2587145312223968
aa(lp206
F0.21261759630014315
aF-0.20142164155061013
aF0.12820631052017026
aF0.27747317882298705
aF0.6549251784961853
aF0.6535674050195105
aF0.2587108283425139
aa(lp207
F0.2128647738505977
aF-0.20078193904233346
aF0.12820343145464083
aF0.27736041391682503
aF0.6549702514248535
aF0.6535892229086746
aF0.2586625180384405
aa(lp208
F0.21297167119479463
aF-0.2005084913880029
aF0.12820717983833607
aF0.2773197798976559
aF0.6549681280458652
aF0.6536181984479055
aF0.2586382446184734
aa(lp209
F0.21306929270528333
aF-0.20026116889591442
aF0.12821266380443125
aF0.2772872837206574
aF0.6549461957797968
aF0.6536643113160955
aF0.25861208601309904
aa(lp210
F0.21359533943559383
aF-0.1989243241076866
aF0.1282022713495988
aF0.2770295245005414
aF0.6550316571717391
aF0.653714093342985
aF0.25854604004433784
aa(lp211
F0.21382015385772754
aF-0.19835108144580393
aF0.128204118240563
aF0.27691178733578553
aF0.6550497235555355
aF0.6537580996990291
aF0.25851512292752177
aa(lp212
F0.2142018401327839
aF-0.19737175256520736
aF0.12820911165235435
aF0.2767054709476703
aF0.6550973328999083
aF0.6538160711786358
aF0.2584687831123672
aa(lp213
F0.2143621844986342
aF-0.1969551585000906
aF0.12820059003261883
aF0.2766255995891984
aF0.6551323501851543
aF0.6538251526570101
aF0.25844254902362773
aa(lp214
F0.2146371264707791
aF-0.1962426110220085
aF0.12819817764228972
aF0.27647205187208557
aF0.6551851881303823
aF0.653847729213821
aF0.25841579052009267
aa(lp215
F0.21475565196964827
aF-0.19593768477064066
aF0.12820176141667622
aF0.27640552076337516
aF0.6551891652223153
aF0.6538764508619712
aF0.25840420444521645
aa(lp216
F0.2148635442318854
aF-0.19566141072856552
aF0.1282067149276013
aF0.2763466426189236
aF0.6551738678372592
aF0.6539235301172696
aF0.25838682779000766
aa(lp217
F0.2149609674964595
aF-0.19540987794506684
aF0.1282127688593458
aF0.276288913503985
aF0.6551527586408492
aF0.653977765062185
aF0.2583648233106483
aa(lp218
F0.21504678999893462
aF-0.19519036123106184
aF0.12821552864884841
aF0.2762518824097754
aF0.6551586922422389
aF0.6539907076674405
aF0.25835661348054473
aa(lp219
F0.21555692966075438
aF-0.1938920109577607
aF0.12821168359514454
aF0.27600648162048635
aF0.6552250906995365
aF0.6540487510211555
aF0.2583035692918915
aa(lp220
F0.21577189889582346
aF-0.19333698841186478
aF0.12820215419235312
aF0.27590176139821404
aF0.6552654780150936
aF0.6540647816002986
aF0.25827240047896605
aa(lp221
F0.2159668760904218
aF-0.19283606311893683
aF0.12819789277986343
aF0.2757995481370588
aF0.6552805748135992
aF0.6541017971875663
aF0.25824952359171693
aa(lp222
F0.21614392769236196
aF-0.19237920531481043
aF0.12820361578396058
aF0.27569509648842583
aF0.6552706784484722
aF0.6541671004828817
aF0.25822075126475796
aa(lp223
F0.2163011722270746
aF-0.19197875783349053
aF0.12820505704220073
aF0.2756253180213111
aF0.6552878569631719
aF0.6541821752101615
aF0.2582134586336782
aa(lp224
F0.21644433655458567
aF-0.19160835520300185
aF0.12821143071205543
aF0.2755404387479679
aF0.6552746304901813
aF0.654240306516899
aF0.25819033014272197
aa(lp225
F0.21657123160568895
aF-0.19128401500551914
aF0.1282137335883587
aF0.2754857807965654
aF0.6552884634112286
aF0.6542523096387248
aF0.2581831319653779
aa(lp226
F0.2166828570648941
aF-0.19098710402149413
aF0.12820070866492075
aF0.2754249862862209
aF0.6553196823463809
aF0.6542549159387484
aF0.2581621502634625
aa(lp227
F0.21678548429263958
aF-0.19072426786469973
aF0.12820288070791128
aF0.27537401455625593
aF0.6553314322406356
aF0.6542645204739926
aF0.25816235835912404
aa(lp228
F0.21707037986403185
aF-0.19000155492109477
aF0.1281992925648939
aF0.2752451300191153
aF0.6553450499754302
aF0.6543143852944516
aF0.2581388561805544
aa(lp229
F0.21732653740705873
aF-0.18933847321263594
aF0.12820262141580452
aF0.27510196570109124
aF0.6553437635828213
aF0.6543937216399444
aF0.25809362076332293
aa(lp230
F0.21755469878433795
aF-0.18875732934034917
aF0.1282008343893736
aF0.2750048166696673
aF0.6553722041969335
aF0.6544094153959149
aF0.25808514450799525
aa(lp231
F0.21775733326491722
aF-0.18822363894577004
aF0.12818761138644144
aF0.2748916420409565
aF0.6554113596128163
aF0.6544305818962549
aF0.25805260763153604
aa(lp232
F0.21794136038749215
aF-0.18775286087407805
aF0.12818740545547472
aF0.27480585545592595
aF0.655435077317895
aF0.6544425679948807
aF0.25805334027035515
aa(lp233
F0.21825415975755713
aF-0.18693946272216028
aF0.12819170682344685
aF0.2746353525119274
aF0.6554838052762162
aF0.6544700379747748
aF0.25804141831217225
aa(lp234
F0.2183879059040517
aF-0.18659216194512054
aF0.12819497432946853
aF0.2745639941444036
aF0.6554941937498864
aF0.6544920485968533
aF0.25803513986112925
aa(lp235
F0.2186149321243574
aF-0.18599928059119816
aF0.1282010235295957
aF0.27444153738385113
aF0.655527155589459
aF0.6545137929727884
aF0.2580265212174043
aa(lp236
F0.21871215537088584
aF-0.18574313130511608
aF0.12819968150143954
aF0.27438820543549985
aF0.6555271925780687
aF0.6545421614681723
aF0.25801118458155
aa(lp237
F0.2189898704796555
aF-0.18503695513351057
aF0.12818659791997436
aF0.27427155368695605
aF0.6555760283188252
aF0.6545435604953536
aF0.2580075838922637
aa(lp238
F0.2194644597951971
aF-0.18381188291928346
aF0.12818624949095275
aF0.2740185059653739
aF0.6556343622651672
aF0.6546005635055571
aF0.2579836112311382
aa(lp239
F0.21966568584281035
aF-0.18329068208109364
aF0.1281848469234272
aF0.27389047503435776
aF0.6556714409509358
aF0.6546137487254616
aF0.2579918781403315
aa(lp240
F0.2200080889904968
aF-0.18239976095822263
aF0.12818226734821284
aF0.2737134172996585
aF0.6557243707680667
aF0.6546405868513971
aF0.25797716336494664
aa(lp241
F0.2201536768382494
aF-0.1820203001576046
aF0.12817944108636023
aF0.27364225235305184
aF0.6557462929906576
aF0.6546515984552017
aF0.25796899347830304
aa(lp242
F0.22028698663937216
aF-0.18167737746733417
aF0.1281850593846742
aF0.27359078480161103
aF0.6557346417958266
aF0.6546910522593724
aF0.25795307346890295
aa(lp243
F0.22040711345072356
aF-0.18136544223577092
aF0.12819188590814842
aF0.2735357598321529
aF0.6557189395187547
aF0.6547369703984416
aF0.2579347980457788
aa(lp244
F0.22051350335398223
aF-0.18109162213553437
aF0.12819449033629837
aF0.2734929103514074
aF0.6557286217080287
aF0.6547448371215482
aF0.2579356526792746
aa(lp245
F0.22069418859912596
aF-0.18061856948985272
aF0.128200615274463
aF0.27339830153881234
aF0.6557548972084679
aF0.6547585512336968
aF0.2579343387165709
aa(lp246
F0.22095590497317946
aF-0.17994510218597767
aF0.12819463867878808
aF0.27326895458219413
aF0.6557701048152129
aF0.6548060341826458
aF0.2579122053920582
aa(lp247
F0.22119832205332174
aF-0.17932836475518113
aF0.1281909256992265
aF0.2731530579706432
aF0.6557985415506972
aF0.6548190842237769
aF0.2579295383580549
aa(lp248
F0.22141674198991057
aF-0.17875733208030908
aF0.12819320883461574
aF0.2730238688088388
aF0.6557957965125233
aF0.6548857315542908
aF0.25790408865266307
aa(lp249
F0.22161173018092953
aF-0.1782575123226265
aF0.12819150834904616
aF0.27293350247487347
aF0.6558190835746279
aF0.654896800818956
aF0.25791241366640305
aa(lp250
F0.22194308787917186
aF-0.17739379650847928
aF0.12819206919103815
aF0.2727560143234872
aF0.6558656243770596
aF0.654924792436488
aF0.25791075135185526
aa(lp251
F0.22208304144516156
aF-0.17702661477295661
aF0.12818554863059808
aF0.2726817698884837
aF0.6558948699603033
aF0.6549261226225819
aF0.2579115077634029
aa(lp252
F0.22221020964317062
aF-0.17669486955945818
aF0.12818175239417154
aF0.27260987930258407
aF0.6559053933198745
aF0.6549444648019657
aF0.2579141654616861
aa(lp253
F0.22232579415775133
aF-0.17639228348203626
aF0.12818524446699295
aF0.27253628328831586
aF0.6558972179883781
aF0.6549842477956993
aF0.25791170750084025
aa(lp254
F0.2224284284583747
aF-0.1761265264639358
aF0.128185880690053
aF0.2724866519166525
aF0.6559088613710687
aF0.6549906836406248
aF0.2579181933213477
aa(lp255
F0.22296366455752514
aF-0.17474147483659727
aF0.1281776058111058
aF0.2722320848008007
aF0.6559642454858069
aF0.6550394182332457
aF0.25792239377358617
aa(lp256
F0.22318981688616354
aF-0.17414968889989388
aF0.1281689818903024
aF0.2721233328825594
aF0.6559953919373167
aF0.6550552224726929
aF0.25791780273789716
aa(lp257
F0.22357639164953783
aF-0.17313756858518783
aF0.1281667045683355
aF0.2719255296797947
aF0.6560433719921712
aF0.6550864060018762
aF0.25792518497628314
aa(lp258
F0.2237418395297069
aF-0.17270563634766475
aF0.12817024987374354
aF0.27184521421745583
aF0.6560502122955724
aF0.655112169641259
aF0.25792701223780784
aa(lp259
F0.22389128732287544
aF-0.1723157491752953
aF0.1281771075998014
aF0.27174137321482394
aF0.6560576268289794
aF0.6551400159104341
aF0.2579468470745971
aa(lp260
F0.2240260491469542
aF-0.1719612345594538
aF0.1281831080017445
aF0.2716741781997994
aF0.6560392522442334
aF0.6551912920505635
aF0.2579341218904626
aa(lp261
F0.22414574354889513
aF-0.17164943265994656
aF0.12818469309254266
aF0.2716267033767388
aF0.6560456462062019
aF0.6552033336427312
aF0.2579372708431724
aa(lp262
F0.22425468543586655
aF-0.17136207735902936
aF0.12818984064530115
aF0.27157203758478843
aF0.6560286532671109
aF0.6552469604483305
aF0.2579272287251024
aa(lp263
F0.22435129016854272
aF-0.17110954577776996
aF0.12819146248943447
aF0.27153285783068837
aF0.6560349236438685
aF0.6552554485304019
aF0.25793096605313753
aa(lp264
F0.22487622809882366
aF-0.16974520635181836
aF0.12818251830717695
aF0.2712965092444143
aF0.6560854609360801
aF0.655297576066047
aF0.2579441001884907
aa(lp265
F0.2250982538483726
aF-0.1691621771408967
aF0.1281746805638917
aF0.27119256767138483
aF0.6561132031199458
aF0.6553119638974615
aF0.25794628492059785
aa(lp266
F0.2252973904280148
aF-0.16863877327050503
aF0.12816303963569262
aF0.2710936392869
aF0.6561457123891704
aF0.6553157430799094
aF0.2579579805377585
aa(lp267
F0.22547779700368764
aF-0.1681617944161857
aF0.12816373473011272
aF0.27098633466767613
aF0.6561596613024461
aF0.6553434570223848
aF0.257964839931312
aa(lp268
F0.2256389149654571
aF-0.16774174847781123
aF0.12816071065202117
aF0.2709146798216536
aF0.6561853090105743
aF0.6553398035485604
aF0.2579841436615099
aa(lp269
F0.22578435527397533
aF-0.16735578254835037
aF0.12816083127791308
aF0.2708283646406902
aF0.6561968465110573
aF0.6553612305469361
aF0.25799099408893955
aa(lp270
F0.22591427143560286
aF-0.16701568127927377
aF0.12815824317748012
aF0.27077105479493463
aF0.6562186204911652
aF0.6553569595570151
aF0.25800661535335784
aa(lp271
F0.22613576951594216
aF-0.16642782153652444
aF0.12815830197218583
aF0.27065234886384637
aF0.6562550002542699
aF0.65536102481722
aF0.25802830822658596
aa(lp272
F0.22622096585753626
aF-0.16620174327454107
aF0.12815813134310822
aF0.27060728398384526
aF0.6562635890239639
aF0.6553687086706583
aF0.25803421337416915
aa(lp273
F0.22649733675954567
aF-0.16548656605954246
aF0.12814916793302772
aF0.2704866679762856
aF0.6562872546759775
aF0.655387263003563
aF0.2580533613221381
aa(lp274
F0.22674615986799845
aF-0.16483002433895635
aF0.12815086341648305
aF0.270346644887396
aF0.6562916788911827
aF0.6554408836917195
aF0.2580526531577207
aa(lp275
F0.2269682010206466
aF-0.16425347346087865
aF0.12814532094202155
aF0.2702528662468265
aF0.6563183188882387
aF0.6554433336789253
aF0.2580769050359761
aa(lp276
F0.22734683396671457
aF-0.16325584515921307
aF0.12814575481621007
aF0.27005952274836154
aF0.6563545391449261
aF0.6554753817982872
aF0.25810578640001147
aa(lp277
F0.22750790875373159
aF-0.1628296108820027
aF0.12814580520009555
aF0.2699791980737957
aF0.6563626866517739
aF0.6554984965381174
aF0.258110397339904
aa(lp278
F0.22778233803135872
aF-0.162102033358554
aF0.12814799531576926
aF0.26983787873468973
aF0.6563851756347454
aF0.6555257852223835
aF0.25813168212268134
aa(lp279
F0.22789941494194302
aF-0.16179193193846284
aF0.12814959327950015
aF0.26977820498636035
aF0.6563922802783898
aF0.655538634452861
aF0.2581433579330511
aa(lp280
F0.22800517597438152
aF-0.16151295870921015
aF0.1281506398271412
aF0.26972705081066484
aF0.6563929579553652
aF0.6555554238887695
aF0.25815245305362283
aa(lp281
F0.22810044458223724
aF-0.1612595352194947
aF0.12815296378074703
aF0.2696758316093249
aF0.6563897379472714
aF0.6555780186954075
aF0.2581567724595567
aa(lp282
F0.22837646464629402
aF-0.16054613664285372
aF0.12814515787965547
aF0.2695684578349319
aF0.656411006320839
aF0.6555893298815846
aF0.25818611090989135
aa(lp283
F0.22884578051546378
aF-0.15931391802048503
aF0.1281384776896578
aF0.26934742948641377
aF0.6564449746414587
aF0.6556311836353708
aF0.25822414399493887
aa(lp284
F0.22904554368626145
aF-0.1587881552920604
aF0.12813801767863922
aF0.2692494672625117
aF0.6564565901579894
aF0.6556519883669196
aF0.25824395398054134
aa(lp285
F0.22938513149048192
aF-0.15789033155524662
aF0.12813516022118052
aF0.2690867159027426
aF0.6564826425366825
aF0.6556789494440869
aF0.25827890860197916
aa(lp286
F0.2295296465014525
aF-0.15750743575498913
aF0.12813307889336228
aF0.26901289422417085
aF0.6564920027022552
aF0.6556925243885772
aF0.2582975543632812
aa(lp287
F0.2296607013626991
aF-0.15716100655426107
aF0.12813566697254203
aF0.2689344739467627
aF0.6564875219310566
aF0.6557214903835838
aF0.2583170712921044
aa(lp288
F0.22977896406625298
aF-0.15684629463304414
aF0.12814096311993936
aF0.2688631059776416
aF0.6564740367457372
aF0.6557611562740098
aF0.25832494119806854
aa(lp289
F0.22988436732458395
aF-0.15656892777902234
aF0.12814276129360333
aF0.2688160378082424
aF0.6564757224408178
aF0.6557730121963635
aF0.2583395442780528
aa(lp290
F0.22998016605843355
aF-0.15631355971906608
aF0.1281482020396543
aF0.2687618699991262
aF0.6564596999728183
aF0.6558107718727795
aF0.25834076535034
aa(lp291
F0.2302538575757597
aF-0.1555984570708669
aF0.12814258360092057
aF0.268659549444039
aF0.6564686392784914
aF0.6558321251880074
aF0.25837026862190177
aa(lp292
F0.23071822920150056
aF-0.15436609137981067
aF0.1281337095008836
aF0.2684712698456191
aF0.656489242164398
aF0.6558762187207097
aF0.2584016987299409
aa(lp293
F0.23091542165483517
aF-0.15384096309884726
aF0.12812888457556007
aF0.268393379727407
aF0.6564972410387435
aF0.6558947251779487
aF0.258415316323861
aa(lp294
F0.2310929040724498
aF-0.15336877027799303
aF0.12812441593030377
aF0.268317441476796
aF0.6565049487156293
aF0.6559102811112497
aF0.2584351099285788
aa(lp295
F0.23125296997154757
aF-0.15293938116682107
aF0.1281260499746573
aF0.2682273528311399
aF0.6565053901310347
aF0.6559385130111963
aF0.25845585129912957
aa(lp296
F0.23139661663695857
aF-0.1525595645631335
aF0.12812784594876242
aF0.26816446695240226
aF0.656512767105005
aF0.6559458866188799
aF0.2584836534870923
aa(lp297
F0.2315272593556454
aF-0.1522103158031158
aF0.12813760021683523
aF0.26809624278772315
aF0.6564941265546992
aF0.6559886778979571
aF0.2584931737434842
aa(lp298
F0.2316435649496242
aF-0.1519021396403767
aF0.1281418679172055
aF0.2680505502617868
aF0.6564936274526643
aF0.6560010994744888
aF0.2585103036760002
aa(lp299
F0.23184077169309153
aF-0.15137135848042715
aF0.12814645672289074
aF0.2679560813667865
aF0.6565029065153416
aF0.656019173438985
aF0.2585388099993805
aa(lp300
F0.2321144970139535
aF-0.15064582664250178
aF0.12814086336274613
aF0.2678462441484142
aF0.6564989975748973
aF0.6560607758067105
aF0.25855698429290286
aa(lp301
F0.23235898970847443
aF-0.1500023078009954
aF0.12812987431171044
aF0.2677684061549771
aF0.656518205216991
aF0.6560591065138204
aF0.2585930695981079
aa(lp302
F0.23257986015702625
aF-0.14940885217536692
aF0.128131423008482
aF0.26766897292041003
aF0.656506206214366
aF0.6561078724508654
aF0.2586027491071045
aa(lp303
F0.2327771040668424
aF-0.1488876083988771
aF0.12812625026086827
aF0.2676011349157539
aF0.6565211047507028
aF0.6561066524624011
aF0.25863822649271956
aa(lp304
F0.2329545396806618
aF-0.14840905377225488
aF0.12812451256871688
aF0.2675203203230922
aF0.6565214319256005
aF0.6561331687680049
aF0.2586537308430831
aa(lp305
F0.2331143144956859
aF-0.14798575224867364
aF0.12812425610059378
aF0.26746747676253635
aF0.6565228133680958
aF0.656142811031996
aF0.2586804127346195
aa(lp306
F0.23338644339864115
aF-0.1472550913684909
aF0.12812912939417578
aF0.26735575373714227
aF0.6565251210883605
aF0.6561704477242731
aF0.258719944837821
aa(lp307
F0.23350171862598212
aF-0.14694406989662645
aF0.1281269641095921
aF0.2673040049687178
aF0.6565320845482782
aF0.6561764515913953
aF0.25874051724324404
aa(lp308
F0.23369857267995986
aF-0.1464121581400093
aF0.12812754218979353
aF0.2672096930543977
aF0.6565471438921676
aF0.6561837481420322
aF0.2587812134972051
aa(lp309
F0.23397086173709847
aF-0.14568358786787355
aF0.1281294684813906
aF0.26709518866776094
aF0.6565309986201558
aF0.6562358887781362
aF0.2588081650970921
aa(lp310
F0.23421419829425708
aF-0.14503727738971292
aF0.12812607788867025
aF0.26701035357072533
aF0.656536879962068
aF0.6562479018154294
aF0.25885031910074224
aa(lp311
F0.23462692873813443
aF-0.1439228900655571
aF0.12811783567142432
aF0.2668543711085598
aF0.6565499039193343
aF0.656278055801581
aF0.2589016835732532
aa(lp312
F0.23480308035590314
aF-0.14344628377235663
aF0.12811880652583799
aF0.2667778867100801
aF0.6565474732059703
aF0.6563010150073686
aF0.2589284694460174
aa(lp313
F0.23510267878008437
aF-0.14263378276635333
aF0.12811930476427316
aF0.2666508505549648
aF0.6565568644356133
aF0.6563224515027241
aF0.2589811717369506
aa(lp314
F0.23523091387521425
aF-0.1422867671444026
aF0.12812356964185473
aF0.2665974424339854
aF0.6565510192237904
aF0.6563416121549496
aF0.25900241504221827
aa(lp315
F0.2353466676422214
aF-0.1419737162533002
aF0.12812864332445054
aF0.2665501225111104
aF0.6565383082695772
aF0.656367610604088
aF0.2590174544576371
aa(lp316
F0.23544961745152929
aF-0.14169119617397238
aF0.12812687524287703
aF0.2665128959841801
aF0.6565349349389803
aF0.6563835924871323
aF0.2590238116322142
aa(lp317
F0.235542522379334
aF-0.141440640552251
aF0.12812761125031205
aF0.2664868618517602
aF0.656531498409587
aF0.656391790065372
aF0.25903853379611297
aa(lp318
F0.2360522176457658
aF-0.14006411333543498
aF0.12811946577859656
aF0.266319405295432
aF0.6565269404290911
aF0.6564366028761044
aF0.2591087363605939
aa(lp319
F0.2362681388219513
aF-0.13947590473139027
aF0.12811415813239457
aF0.26624322793523125
aF0.6565278085694802
aF0.6564550279563207
aF0.25913814158562326
aa(lp320
F0.23646247284743283
aF-0.13894748816582828
aF0.12810951141045085
aF0.26616704007535846
aF0.6565301764065168
aF0.6564677134970753
aF0.2591782695001115
aa(lp321
F0.23663745378831258
aF-0.1384652396183357
aF0.12811170182781736
aF0.2660928272431859
aF0.6565164937543047
aF0.6565051169986639
aF0.2591943905119336
aa(lp322
F0.23679396088081567
aF-0.13804063632355215
aF0.12810854277811826
aF0.2660430090439303
aF0.6565228079613119
aF0.6565056279152442
aF0.2592282401303083
aa(lp323
F0.23693514257371248
aF-0.13765047164810426
aF0.12811041812624197
aF0.2659824076060137
aF0.6565129470326201
aF0.6565333546592764
aF0.25924518017214804
aa(lp324
F0.23706143720805534
aF-0.13730667841620414
aF0.1281081133873655
aF0.26594215912339486
aF0.6565183646610814
aF0.656532988254381
aF0.25927367818060354
aa(lp325
F0.2372769426313814
aF-0.13671277941069718
aF0.12810955819318987
aF0.26585707353661164
aF0.6565227780163129
aF0.6565461580206233
aF0.25931641055793336
aa(lp326
F0.2373687666551432
aF-0.13645974178384335
aF0.1281095919714629
aF0.26582200788981275
aF0.6565232722662115
aF0.6565527495012357
aF0.2593344177248013
aa(lp327
F0.23763738817186267
aF-0.13573485572989724
aF0.1281004101563188
aF0.26574485056238817
aF0.6565201556030236
aF0.6565683596898964
aF0.25938185892747884
aa(lp328
F0.23809427182801463
aF-0.13448654159586618
aF0.12809587702791977
aF0.26558901789333006
aF0.656510621349208
aF0.6566121994845731
aF0.2594546147559617
aa(lp329
F0.23828825609354787
aF-0.13395461648006143
aF0.1280930895726615
aF0.2655251560843168
aF0.6565067576996957
aF0.6566293265304216
aF0.2594864083554999
aa(lp330
F0.23861878267174094
aF-0.1330447577389466
aF0.1280900410593572
aF0.26541286353217597
aF0.6565008606938549
aF0.656656963112933
aF0.2595462667332711
aa(lp331
F0.23875995089816926
aF-0.13265606592956336
aF0.1280915682429857
aF0.26535454089996363
aF0.6564940570677844
aF0.656674030449969
aF0.25957992678757635
aa(lp332
F0.2388866946059826
aF-0.13230659480815407
aF0.1280910733582594
aF0.26530866332899256
aF0.656487145102852
aF0.656690167817038
aF0.25960347642071496
aa(lp333
F0.2390010870324225
aF-0.13198933954012879
aF0.12809524569615
aF0.26526028864417855
aF0.6564740960210167
aF0.6567152727417906
aF0.2596224009392709
aa(lp334
F0.23910340955209666
aF-0.13170876328804407
aF0.12809569143061905
aF0.26523100648666365
aF0.6564715976126005
aF0.6567207842240343
aF0.25964469240521887
aa(lp335
F0.23919585355117975
aF-0.13145200257075487
aF0.12809899833940064
aF0.26519577475452016
aF0.6564598619423492
aF0.6567416065620134
aF0.259657684117623
aa(lp336
F0.23946103616517236
aF-0.13072667490142345
aF0.12809112751885893
aF0.2651319952738901
aF0.6564546007258429
aF0.65675306702411
aF0.25970712585985206
aa(lp337
F0.2396991597831679
aF-0.13006814001924766
aF0.12808703074576916
aF0.2650701034517556
aF0.6564375361091974
aF0.6567833056098631
aF0.25973696486088177
aa(lp338
F0.23991249864806327
aF-0.12947100403195128
aF0.1280845045921462
aF0.26499822987843036
aF0.6564231647892114
aF0.6568167646679428
aF0.2597620151995875
aa(lp339
F0.24010432365785844
aF-0.1289420808506178
aF0.1280816331734683
aF0.2649480028818661
aF0.6564193186411537
aF0.6568239357284851
aF0.25980483316854835
aa(lp340
F0.2402769853372684
aF-0.1284561971860473
aF0.12808507992166732
aF0.2648875403418271
aF0.6563964633997512
aF0.6568651890642039
aF0.2598199322677221
aa(lp341
F0.24043165078440176
aF-0.12802795915957157
aF0.1280835783425677
aF0.2648463570040209
aF0.6563946932580024
aF0.6568687199175852
aF0.2598574583079433
aa(lp342
F0.24069495566958618
aF-0.12728895716714164
aF0.128084284210347
aF0.2647641789789379
aF0.6563868275017789
aF0.6568897599311759
aF0.25990787889042716
aa(lp343
F0.24080715862771837
aF-0.1269737195895028
aF0.1280847730379101
aF0.2647275788491676
aF0.656381199357401
aF0.6569009088440143
aF0.2599311949087787
aa(lp344
F0.2409984422406935
aF-0.1264348304449581
aF0.1280868672485079
aF0.26466701368671647
aF0.6563750828985451
aF0.6569154895699885
aF0.25997146377844227
aa(lp345
F0.2412607683549098
aF-0.12570051143459923
aF0.12807995215766468
aF0.2645999354566152
aF0.6563604621810326
aF0.6569415826771017
aF0.2600107205319834
aa(lp346
F0.24149628597662012
aF-0.12504586395592246
aF0.12807347585987147
aF0.2645505989358308
aF0.6563519920714298
aF0.6569510401304638
aF0.26005840493639293
aa(lp347
F0.24189703978359178
aF-0.12391607656854389
aF0.1280696916175725
aF0.2644417272051477
aF0.6563294245414746
aF0.6569895896155927
aF0.2601286960920504
aa(lp348
F0.2420674108841357
aF-0.12343496844681817
aF0.12806806302553644
aF0.2643907705722239
aF0.6563225426159346
aF0.6570018337645567
aF0.2601669289521445
aa(lp349
F0.24222071905840792
aF-0.12300123152099247
aF0.12806791050829502
aF0.26435087408607233
aF0.6563080402991822
aF0.657022843658001
aF0.2601909962318653
aa(lp350
F0.24235838632146478
aF-0.12260804823830047
aF0.12806914739598615
aF0.2643061439565786
aF0.6562926538365947
aF0.6570482212038327
aF0.2602111638646647
aa(lp351
F0.2424819645948915
aF-0.12225992661527668
aF0.12806770691410924
aF0.2642792349609026
aF0.6562881683571221
aF0.6570521842114772
aF0.2602397995423853
aa(lp352
F0.24269271508633095
aF-0.12165848222634482
aF0.12807034454775962
aF0.26421946156376935
aF0.6562734197708249
aF0.6570754366604572
aF0.26027897566020963
aa(lp353
F0.24278253944475903
aF-0.12140219443679426
aF0.12807159858614822
aF0.2641940173913541
aF0.656266547370385
aF0.6570852112173272
aF0.2602974551866604
aa(lp354
F0.24306305144525595
aF-0.1206940681411035
aF0.12806962726319474
aF0.2640328457765151
aF0.6563189113951662
aF0.6570889447143444
aF0.2603195375503117
aa(lp355
F0.24331468134965903
aF-0.12004819246897051
aF0.12807344124538697
aF0.2638736874392896
aF0.6563562976968368
aF0.6571137374083593
aF0.26032407429992205
aa(lp356
F0.2435408303586589
aF-0.11947641422234845
aF0.12807287851307117
aF0.2637412155595002
aF0.6564026175974758
aF0.6571081793013476
aF0.260355555964622
aa(lp357
F0.24374390926423026
aF-0.11895229442903466
aF0.12807852915737997
aF0.2636087842536193
aF0.65642819285399
aF0.657134431848789
aF0.26035893487557343
aa(lp358
F0.2439257714466147
aF-0.11848922139737163
aF0.1280760780620272
aF0.263505432527423
aF0.6564688477818986
aF0.6571267122028157
aF0.260380535044308
aa(lp359
F0.2440892492559975
aF-0.11806582171482259
aF0.12807762143617066
aF0.26339666618104446
aF0.6564974423133005
aF0.6571373058414732
aF0.2603917543859945
aa(lp360
F0.24423610916501023
aF-0.11769067386982948
aF0.1280759295856977
aF0.2633109862680366
aF0.6565302225274621
aF0.657130625928301
aF0.26041261852236436
aa(lp361
F0.24448740528404195
aF-0.11704175573422174
aF0.12808331441865223
aF0.26315016535551916
aF0.6565716193299079
aF0.6571438052647003
aF0.2604375517587567
aa(lp362
F0.24459451601923118
aF-0.11676460730483791
aF0.12808757167628715
aF0.2630821373373121
aF0.6565859031963198
aF0.6571533811721914
aF0.2604461064248443
aa(lp363
F0.24489560323486945
aF-0.11604734054675563
aF0.12808917466525468
aF0.2628639071370063
aF0.6566722114132507
aF0.6571613865305432
aF0.2604286565175812
aa(lp364
F0.24516591843023489
aF-0.11539333444108583
aF0.1280981739600311
aF0.26265712940047875
aF0.6567366515361618
aF0.6571943337409676
aF0.2603916484892244
aa(lp365
F0.24540871016319304
aF-0.11481439820890404
aF0.12810073173528927
aF0.2624810050548978
aF0.6568125490201662
aF0.6571903643967936
aF0.2603878307045324
aa(lp366
F0.24562677941346844
aF-0.1142844275358781
aF0.12810934221311385
aF0.26230500161118797
aF0.6568665451078755
aF0.6572150489093735
aF0.2603666790026093
aa(lp367
F0.24582288789125833
aF-0.11381453780645012
aF0.1281142102419123
aF0.2621641840959911
aF0.6569229984773005
aF0.6572172027032335
aF0.2603606404966253
aa(lp368
F0.24599899964187424
aF-0.11338490050326182
aF0.12812243865136358
aF0.2620260304347002
aF0.6569638126164795
aF0.6572393138220688
aF0.26034091621131905
aa(lp369
F0.24615737647372413
aF-0.11300414607567864
aF0.12812713939987228
aF0.26190558378512135
aF0.657011512652692
aF0.6572390093650984
aF0.26034250900070194
aa(lp370
F0.24629974725723094
aF-0.11265566840566787
aF0.128135034200161
aF0.2617873220448856
aF0.6570442501893721
aF0.6572578621604057
aF0.2603312388822874
aa(lp371
F0.24642771190314489
aF-0.11234717543786948
aF0.1281393464884012
aF0.26168988938674737
aF0.6570827326481518
aF0.6572574004528073
aF0.26033323606179737
aa(lp372
F0.24674772540180315
aF-0.1115993378192518
aF0.12814265188014368
aF0.26151659622624795
aF0.6571587341189112
aF0.6572920692530786
aF0.2602279842109105
aa(lp373
F0.2470347745240208
aF-0.11091791475839304
aF0.1281526573999792
aF0.26134698040511617
aF0.6572157656724271
aF0.6573467370132144
aF0.2601162442501679
aa(lp374
F0.24729265626457536
aF-0.11031432467290032
aF0.12815558475709987
aF0.26120430587386156
aF0.6572854604839516
aF0.6573617660502069
aF0.26004546249590066
aa(lp375
F0.24773231778038965
aF-0.10927090213521484
aF0.1281722958652536
aF0.2609474845529119
aF0.6573838180574721
aF0.6574239902255588
aF0.25989733191703357
aa(lp376
F0.24791936528816377
aF-0.10882589534635732
aF0.128180222086679
aF0.2608407970297699
aF0.6574225518605169
aF0.6574535530541626
aF0.2598316618246082
aa(lp377
F0.24823816021970696
aF-0.10806543573329505
aF0.12819236656642316
aF0.2606497130497432
aF0.6574990016279245
aF0.6574920384576316
aF0.2597325726785098
aa(lp378
F0.24837417014736485
aF-0.10774083659794413
aF0.1281995339977728
aF0.2605661196288609
aF0.6575275934626359
aF0.6575126899871481
aF0.25969178585903946
aa(lp379
F0.24849590917893558
aF-0.10745014082551929
aF0.12820039450898502
aF0.2604951474140108
aF0.6575603317386852
aF0.6575220919960563
aF0.2596562859523967
aa(lp380
F0.24860564257609968
aF-0.10718595889656363
aF0.12820502166549438
aF0.2604272142819373
aF0.6575829052349109
aF0.6575410149421511
aF0.25961934148481647
aa(lp381
F0.248909877005851
aF-0.10648264208364387
aF0.12820902638238538
aF0.2602821159410563
aF0.6576526541732433
aF0.6575774431730766
aF0.2594958820677012
aa(lp382
F0.2494283682321916
aF-0.10526869471553175
aF0.12822844783904083
aF0.2600165963157619
aF0.6577537460364556
aF0.657672396358679
aF0.2592651119668988
aa(lp383
F0.24964840331746868
aF-0.10475203837784944
aF0.12823401769581488
aF0.25990479504517533
aF0.6578027775980723
aF0.6577048136800243
aF0.2591705642215391
aa(lp384
F0.2498464883996962
aF-0.10428746483159
aF0.12824028564016032
aF0.25980188159707673
aF0.6578449479297478
aF0.6577346709275578
aF0.2590909289453094
aa(lp385
F0.2500246428961836
aF-0.1038652226555608
aF0.1282505788809701
aF0.25970546340849743
aF0.6578730168909407
aF0.6577771896522845
aF0.25900836800329885
aa(lp386
F0.2501849269224511
aF-0.10349046494950023
aF0.1282569258564761
aF0.25962707088256276
aF0.657906164248986
aF0.6577993237020874
aF0.258946544377799
aa(lp387
F0.25032880281186753
aF-0.10314843316887945
aF0.12826519608304715
aF0.2595499480937397
aF0.6579286059527462
aF0.6578337700692904
aF0.2588793249180724
aa(lp388
F0.250457893317963
aF-0.10284550491647286
aF0.1282670380917803
aF0.2594862833395828
aF0.6579611602557299
aF0.6578450519736464
aF0.2588317367467403
aa(lp389
F0.25057410364957744
aF-0.10256883451064247
aF0.12827274420186943
aF0.25942097383561824
aF0.6579828226611958
aF0.657868556773774
aF0.2587823900990494
aa(lp390
F0.2508838239040114
aF-0.10185456213742054
aF0.12827642179528237
aF0.25927866496817903
aF0.658052575340145
aF0.6579080265128827
aF0.2586472706804494
aa(lp391
F0.25141181425064124
aF-0.10062125705975031
aF0.1282966341841781
aF0.25901934848961666
aF0.6581505571989094
aF0.6580115672752997
aF0.2583942694772533
aa(lp392
F0.25163613533011847
aF-0.10009584885366023
aF0.12830480714786877
aF0.2589083174004598
aF0.6581948142285113
aF0.6580519050896206
aF0.25829006932416
aa(lp393
F0.25201898805909834
aF-0.09919640662149573
aF0.12832165471092893
aF0.25871647506986695
aF0.6582683679407909
aF0.6581229568103482
aF0.2581137637073912
aa(lp394
F0.2521822504996775
aF-0.09881288603501323
aF0.12833087534374002
aF0.25863422902223415
aF0.658296680193458
aF0.6581554071029321
aF0.2580412302821402
aa(lp395
F0.2523286575953044
aF-0.09846856977132531
aF0.12833618095018554
aF0.25856188635180594
aF0.6583263878794456
aF0.6581794117415453
aF0.2579767041950702
aa(lp396
F0.2524602653575113
aF-0.09815642979356816
aF0.12834305906337654
aF0.2584931011265681
aF0.6583493661311459
aF0.6582077993835158
aF0.25791456262762213
aa(lp397
F0.25257870503511703
aF-0.09787903448958901
aF0.12834668439411065
aF0.2584367654218792
aF0.6583756836890693
aF0.6582223939716499
aF0.25786658852875305
aa(lp398
F0.2526851338832303
aF-0.09762615742356856
aF0.1283522319376272
aF0.2583809317937706
aF0.6583941331938655
aF0.6582453069499468
aF0.2578169415295507
aa(lp399
F0.25298580586933533
aF-0.09693244201202679
aF0.12835444282271535
aF0.2582464232392019
aF0.6584617594473646
aF0.6582848663140527
aF0.2576779598870067
aa(lp400
F0.2534982735354204
aF-0.0957350397698292
aF0.12837074842667767
aF0.2579951696543115
aF0.6585607096941243
aF0.6583827950334287
aF0.25742645413046494
aa(lp401
F0.25371607903489823
aF-0.09522445494889754
aF0.1283758785567966
aF0.25789069474654475
aF0.658603629768692
aF0.6584238010466108
aF0.25731643288756595
aa(lp402
F0.2540885390072664
aF-0.094348931962449
aF0.1283956451606115
aF0.25770327760567857
aF0.6586694451506659
aF0.658500954650884
aF0.2571382419246092
aa(lp403
F0.2542470606168176
aF-0.09397749241030895
aF0.12840154674279392
aF0.25762633357730863
aF0.6587009567972912
aF0.65852756514517
aF0.2570664655411524
aa(lp404
F0.25438987658113155
aF-0.09364208151588586
aF0.12840988573646098
aF0.2575542456619445
aF0.6587269831567321
aF0.6585541302584652
aF0.25700394884564215
aa(lp405
F0.25451825217809243
aF-0.0933391802101051
aF0.12841848574496809
aF0.2574900509310879
aF0.6587457319880261
aF0.658584789134772
aF0.25694164664252744
aa(lp406
F0.2546336403450936
aF-0.09307012184849335
aF0.1284226225976391
aF0.25743685575671454
aF0.6587702044208015
aF0.6585996234812275
aF0.25689417863364955
aa(lp407
F0.25473744400022225
aF-0.09282373504387613
aF0.12843065604680265
aF0.25738241274640866
aF0.6587848592980445
aF0.658625891475849
aF0.2568438004821921
aa(lp408
F0.2550358933215757
aF-0.09213456322601322
aF0.12843652679936635
aF0.2572438049262636
aF0.6588495059564415
aF0.6586683412482536
aF0.25670794605014785
aa(lp409
F0.2555445105834234
aF-0.09094989418775715
aF0.12845555112845533
aF0.25700161846338443
aF0.6589436862982992
aF0.6587660294386369
aF0.25645799822283266
aa(lp410
F0.255761129337666
aF-0.09044482445395147
aF0.12846590975499883
aF0.25689794654248943
aF0.6589819073607174
aF0.6588083234334756
aF0.2563549956764177
aa(lp411
F0.2561304730378326
aF-0.0895801659387845
aF0.12848412701658196
aF0.25671938265103605
aF0.6590485743863721
aF0.6588799022466463
aF0.2561784721361488
aa(lp412
F0.25628767054504903
aF-0.08921191522550383
aF0.12849188173291543
aF0.2566437629742205
aF0.6590775633779765
aF0.6589088825075027
aF0.2561051130510586
aa(lp413
F0.25655630721067396
aF-0.0885797229478281
aF0.12850951269094996
aF0.25651025686848733
aF0.6591223478429952
aF0.6589654618262162
aF0.2559780045538325
aa(lp414
F0.25667061682032183
aF-0.08831136102029725
aF0.1285155865615518
aF0.2564552043905026
aF0.6591435576917359
aF0.6589858420556071
aF0.2559260800793256
aa(lp415
F0.25686628827406083
aF-0.08785012390193737
aF0.12853070599172295
aF0.25635534251748354
aF0.6591730466089702
aF0.6590300412122728
aF0.2558363495806299
aa(lp416
F0.2569496423978216
aF-0.08765451723165105
aF0.1285362879862327
aF0.2563146901806744
aF0.6591872076598626
aF0.6590457090755398
aF0.25580023104817
aa(lp417
F0.2572295964963287
aF-0.0870068959084449
aF0.1285443155061042
aF0.2561852876894248
aF0.6592426913001085
aF0.6590929363679224
aF0.2556651590827079
aa(lp418
F0.25748076407323434
aF-0.08642013034646476
aF0.1285552492453566
aF0.25606310288644135
aF0.6592862571111732
aF0.6591471976288243
aF0.25553530163673155
aa(lp419
F0.25770677343801274
aF-0.08589826423746123
aF0.12855997707416433
aF0.25596228577759683
aF0.6593360105231498
aF0.6591760330757931
aF0.25543353520120593
aa(lp420
F0.2579098973671934
aF-0.0854207676540015
aF0.1285732385577047
aF0.25585958223766514
aF0.6593669433092062
aF0.6592256519386207
aF0.25532851010872665
aa(lp421
F0.2580924442144667
aF-0.08499796024799404
aF0.1285776898338275
aF0.25577788713249167
aF0.6594072754593474
aF0.6592483728809528
aF0.255247527665078
aa(lp422
F0.2584043600525593
aF-0.08426679300068361
aF0.1285962539000604
aF0.25562500515073616
aF0.6594610249542251
aF0.6593119544664845
aF0.2550975499795977
aa(lp423
F0.25853681364318526
aF-0.08395619566427762
aF0.12860182065051387
aF0.255561035006205
aF0.6594872484013558
aF0.6593344632206836
aF0.25503566847023346
aa(lp424
F0.25876374991616674
aF-0.08342290540254406
aF0.12861697743641587
aF0.2554491937034015
aF0.6595255734047266
aF0.6593807618009955
aF0.25492888896354526
aa(lp425
F0.25886028612175016
aF-0.0831966291701374
aF0.1286217851489537
aF0.2554033756448344
aF0.6595440290843284
aF0.6593970373031396
aF0.25488494777894605
aa(lp426
F0.25915147984599796
aF-0.08252103010573585
aF0.12862677547658294
aF0.2552702599098782
aF0.659603912005925
aF0.659445232202705
aF0.25473860994584957
aa(lp427
F0.25941285150063165
aF-0.08190933924799079
aF0.12863488231626757
aF0.2551430069061882
aF0.6596508378427972
aF0.6595006309519514
aF0.2546011310543266
aa(lp428
F0.25964858533467117
aF-0.08136328127868697
aF0.1286430823358015
aF0.2550341153770294
aF0.6596981960777655
aF0.6595370307661231
aF0.25449321235310807
aa(lp429
F0.25985993368828125
aF-0.08086807345384601
aF0.1286521200980419
aF0.2549355361153013
aF0.6597340936541982
aF0.659581628592208
aF0.2543833196566317
aa(lp430
F0.2600505025394795
aF-0.08042530913944196
aF0.12866045142307528
aF0.2548459333675403
aF0.6597714329354956
aF0.6596117546426573
aF0.25429813146286573
aa(lp431
F0.2603754773631966
aF-0.07966492614153084
aF0.1286775149664391
aF0.2546882927255778
aF0.6598298670284654
aF0.6596729155250349
aF0.2541457547322562
aa(lp432
F0.2605138486184711
aF-0.07934113984737634
aF0.1286847043496495
aF0.25462163079805805
aF0.659855431317863
aF0.659697456582293
aF0.25408246824389163
aa(lp433
F0.26075031466169113
aF-0.07878523950339714
aF0.12870067794093293
aF0.2545040886386127
aF0.6598950295689625
aF0.6597455698249794
aF0.25397244321524404
aa(lp434
F0.26085098547169466
aF-0.07854929589889273
aF0.12870617517904376
aF0.254455634164294
aF0.6599138126434202
aF0.6597627679331897
aF0.2539275096826024
aa(lp435
F0.261145888999213
aF-0.07786485293177628
aF0.12871361130682302
aF0.25431863221925904
aF0.6599727006253214
aF0.6598129279546677
aF0.25378133863492347
aa(lp436
F0.2614101670118251
aF-0.07724488136892965
aF0.12872289759203515
aF0.2541905813000003
aF0.6600186836269242
aF0.6598711982973958
aF0.2536384972737955
aa(lp437
F0.26164911137966385
aF-0.07669117837627025
aF0.12873227751881794
aF0.2540788470699492
aF0.6600654616957946
aF0.6599095903261876
aF0.2535288116633811
aa(lp438
F0.2618634539071085
aF-0.07618942998841771
aF0.12874347095627894
aF0.2539739236657589
aF0.660101808687094
aF0.6599546517534995
aF0.2534219917346632
aa(lp439
F0.26205646851003456
aF-0.0757426647787481
aF0.12874925039197085
aF0.2538860859079212
aF0.660142966152708
aF0.6599796048714774
aF0.25333779973614085
aa(lp440
F0.26238597547143716
aF-0.0749707882210215
aF0.12876945478620247
aF0.2537241816026236
aF0.660198911176967
aF0.6600457973106713
aF0.25318171893591823
aa(lp441
F0.26252623827855315
aF-0.07464283494684666
aF0.12877690373223918
aF0.2536568729955275
aF0.6602248243381712
aF0.6600702739219804
aF0.2531177702065261
aa(lp442
F0.2627659619020676
aF-0.0740797977662021
aF0.12879344398367848
aF0.25353814252941553
aF0.6602648335519027
aF0.660118440985195
aF0.2530067266471141
aa(lp443
F0.26286803318691987
aF-0.07384078625206268
aF0.12879923465113483
aF0.2534891439625527
aF0.660283813776902
aF0.6601356452696822
aF0.2529613982443608
aa(lp444
F0.2631664534505354
aF-0.073153241004634
aF0.12880928780455017
aF0.25335080377405195
aF0.6603416795776521
aF0.660186044693479
aF0.25281737050999287
aa(lp445
F0.2634341509877515
aF-0.07253097431026648
aF0.1288216250074066
aF0.2532221297253643
aF0.6603878667991273
aF0.6602418402719908
aF0.25267989780768874
aa(lp446
F0.2636752460777041
aF-0.0719767021027119
aF0.12882779286364365
aF0.25311392739940003
aF0.6604396243548682
aF0.6602730915103656
aF0.2525713502474023
aa(lp447
F0.2638918186303824
aF-0.07147032666189539
aF0.12884286748112295
aF0.2530057433924008
aF0.6604724537100863
aF0.6603239580034318
aF0.25246089239190833
aa(lp448
F0.2640867657799144
aF-0.07102105476285817
aF0.12884941761705498
aF0.2529174591951374
aF0.6605137341909357
aF0.660349190916586
aF0.2523753391978548
aa(lp449
F0.26426189141900025
aF-0.07061071779818189
aF0.12886273458456254
aF0.25282949115947606
aF0.6605399392710957
aF0.6603901094059141
aF0.25228781267953143
aa(lp450
F0.26441956534101124
aF-0.07024663164179179
aF0.12886894558234546
aF0.25275763564126064
aF0.6605730117622771
aF0.6604104195063911
aF0.2522200459197221
aa(lp451
F0.26468876994685114
aF-0.06961767387499232
aF0.12888784237427278
aF0.2526255233894685
aF0.660617798684499
aF0.6604642984116958
aF0.25209398945034395
aa(lp452
F0.2648034063948081
aF-0.06935055610654263
aF0.12889470618420995
aF0.25257079777580144
aF0.6606388053315362
aF0.6604839020764929
aF0.25204240932594213
aa(lp453
F0.2651113562534153
aF-0.06863833876768889
aF0.12890439195201456
aF0.2524270540300196
aF0.6606981974369371
aF0.6605367110312226
aF0.25189229380305156
aa(lp454
F0.26538766121121965
aF-0.06799389101836267
aF0.1289166826903571
aF0.2522936287068771
aF0.6607456081573545
aF0.6605945680438315
aF0.25174984187813865
aa(lp455
F0.26563653128607856
aF-0.06741963198613318
aF0.12892267384117273
aF0.25218097806314327
aF0.6607986316927822
aF0.6606275881861803
aF0.25163686610545344
aa(lp456
F0.26586001682034305
aF-0.06689529904901156
aF0.12893765038121047
aF0.2520691199927001
aF0.660832604897412
aF0.6606799139136689
aF0.2515223218754829
aa(lp457
F0.2660612553526538
aF-0.06642981987807459
aF0.1289441129898519
aF0.25197727527304004
aF0.6608749328086412
aF0.660706499523736
aF0.25143328621771616
aa(lp458
F0.26624190630204136
aF-0.06600645742540746
aF0.12895491752374635
aF0.25188881209652897
aF0.660904983046153
aF0.6607439721114623
aF0.25134445099053043
aa(lp459
F0.2664047706175804
aF-0.06562721916046894
aF0.1289642943160235
aF0.2518109281872173
aF0.6609351362391002
aF0.660771242739222
aF0.25127150037152673
aa(lp460
F0.2666825774151208
aF-0.06497699679782476
aF0.1289812658820396
aF0.2516760933034987
aF0.660983651662602
aF0.6608231926409184
aF0.25114231893913125
aa(lp461
F0.26680097571570494
aF-0.06469902957926323
aF0.12899018888889852
aF0.2516173032552504
aF0.661002850681701
aF0.6608472905667239
aF0.25108728092804794
aa(lp462
F0.26711216658831743
aF-0.06398079360100069
aF0.12899533939339933
aF0.2514758637439038
aF0.6610677437146614
aF0.6608928194426239
aF0.2509382581103243
aa(lp463
F0.26739164417628014
aF-0.06332621412409443
aF0.1290114028918143
aF0.2513371967181728
aF0.6611111408215593
aF0.6609578755104327
aF0.2507914668169599
aa(lp464
F0.2676433237099561
aF-0.06274480645756313
aF0.1290175245779159
aF0.25122275446100234
aF0.6611643688458603
aF0.6609916078163314
aF0.25067688247236425
aa(lp465
F0.2678692056736788
aF-0.06221599686611938
aF0.12902957132106563
aF0.2511126319391864
aF0.6612021462144458
aF0.661038748720266
aF0.25056324673090086
aa(lp466
F0.2680728361549852
aF-0.06174246699445789
aF0.12903977414496176
aF0.2510158361173043
aF0.661240466304677
aF0.6610724117814416
aF0.2504702819117913
aa(lp467
F0.26825552925496055
aF-0.06131398941595862
aF0.1290507234716099
aF0.2509264071369556
aF0.6612707971514311
aF0.6611100415601114
aF0.25038047844118666
aa(lp468
F0.26842024833349526
aF-0.0609301343383044
aF0.1290601217711964
aF0.25084742012323585
aF0.6613012195415966
aF0.6611375410905522
aF0.25030665314979544
aa(lp469
F0.268568051058224
aF-0.06058304957927181
aF0.12906963548228642
aF0.25077495814067574
aF0.6613257488111934
aF0.6611674291720093
aF0.2502354989423619
aa(lp470
F0.26870132792504586
aF-0.06027223486601489
aF0.12907750836134899
aF0.2507111655741586
aF0.6613506166506133
aF0.6611888212608249
aF0.2501771691262438
aa(lp471
F0.2693171130358372
aF-0.05884365363473083
aF0.1290944052748327
aF0.2504233493104901
aF0.6614690562739983
aF0.6612941629692967
aF0.2498736955640585
aa(lp472
F0.26957928290321154
aF-0.05823156916203506
aF0.12910785695194243
aF0.25029591902031006
aF0.6615138820136898
aF0.6613466821267806
aF0.24974367432400676
aa(lp473
F0.2700269272141547
aF-0.057186868709084716
aF0.12912914080174628
aF0.2500813527419009
aF0.6615942630268263
aF0.6614287666687306
aF0.24952822438324135
aa(lp474
F0.27021759268477696
aF-0.05674168644799887
aF0.12913884438817913
aF0.24999011063909157
aF0.6616288997370707
aF0.6614623097962059
aF0.24943888296421626
aa(lp475
F0.27054337956828284
aF-0.05597788109056838
aF0.12916030505391138
aF0.24983008277047505
aF0.6616833547394039
aF0.6615261694048491
aF0.24928536859641937
aa(lp476
F0.2706821605167992
aF-0.05565322743306392
aF0.12916845730216334
aF0.2497633825965717
aF0.6617083963933171
aF0.661550034645325
aF0.24922239569764312
aa(lp477
F0.27080706646432073
aF-0.05536000396978544
aF0.12917787818390772
aF0.24970159716652207
aF0.6617290024650048
aF0.6615742650890352
aF0.24916526933154384
aa(lp478
F0.27091928013184663
aF-0.05509627006788513
aF0.12918554202167196
aF0.24964679377952845
aF0.661747896647982
aF0.6615956594214861
aF0.24911319329217085
aa(lp479
F0.27102048487793085
aF-0.054859414669701144
aF0.12919283849403573
aF0.24959740515905768
aF0.6617657950398143
aF0.6616128298734466
aF0.24906953085441283
aa(lp480
F0.2715821987354522
aF-0.053555900783554024
aF0.12921280960373147
aF0.2493322193086088
aF0.6618703451500829
aF0.6617123094125358
aF0.24879290624429526
aa(lp481
F0.2718213188613622
aF-0.05300004793608817
aF0.1292225293291542
aF0.24921927518916487
aF0.6619147285178879
aF0.6617539446153023
aF0.24867722419104957
aa(lp482
F0.27222983021722613
aF-0.05204796356747891
aF0.1292427570652737
aF0.24902385673620997
aF0.6619878014237335
aF0.6618279414467972
aF0.2484814791140174
aa(lp483
F0.2724038676851637
aF-0.05164229841761662
aF0.12925179590926653
aF0.24894082110884935
aF0.6620193726691121
aF0.6618581026509229
aF0.24840022091730843
aa(lp484
F0.2727012731469607
aF-0.05094622350325608
aF0.12927177926680244
aF0.24879518174433615
aF0.6620689936529887
aF0.6619157077251586
aF0.24826034933276037
aa(lp485
F0.2728279941817353
aF-0.05065041816502585
aF0.12927923197878982
aF0.2487345371942337
aF0.662091880413117
aF0.6619371317097692
aF0.2482029523628533
aa(lp486
F0.27304456912668384
aF-0.0501426109496474
aF0.12929541057505242
aF0.24862780208230234
aF0.6621273727565651
aF0.6619790956460053
aF0.24810327528251008
aa(lp487
F0.2731368599459504
aF-0.04992622887306848
aF0.12930235343724422
aF0.24858245318672012
aF0.662142691339268
aF0.6619964927867438
aF0.24806141137168766
aa(lp488
F0.27321992347757734
aF-0.049731547387656734
aF0.12930873160691597
aF0.24854166193025282
aF0.6621565971140666
aF0.6620118200142536
aF0.24802425958902316
aa(lp489
F0.27375042276369094
aF-0.048500873995540573
aF0.12932732068150463
aF0.24829132637445556
aF0.6622553726782551
aF0.6621047121079602
aF0.2477631708112288
aa(lp490
F0.27395373038156334
aF-0.04802874805737593
aF0.1293351663615167
aF0.2481957177086192
aF0.6622934649329174
aF0.6621391875147826
aF0.24766499222844854
aa(lp491
F0.27434398140751437
aF-0.04711994644196067
aF0.1293538134744548
aF0.24800952321647857
aF0.6623634466806371
aF0.6622090752526875
aF0.24747743644272396
aa(lp492
F0.27451028329415267
aF-0.04673145479623677
aF0.12936432344201557
aF0.2479283322774712
aF0.6623913833320941
aF0.6622411997133393
aF0.24739804110732871
aa(lp493
F0.2747944443926681
aF-0.04606838030235193
aF0.12938062058144484
aF0.24779177736280159
aF0.6624414246413717
aF0.6622917925972611
aF0.24726539476602893
aa(lp494
F0.27491555347294244
aF-0.04578603925589362
aF0.12938742579054066
aF0.24773404508954464
aF0.6624633923401667
aF0.6623119825437936
aF0.2472103041777174
aa(lp495
F0.2751225368102937
aF-0.04530132692981403
aF0.1294023817997913
aF0.24763243332818757
aF0.6624975128900602
aF0.6623515694072335
aF0.24711459261286092
aa(lp496
F0.2752107497758665
aF-0.04509476583944459
aF0.1294088415190043
aF0.24758923477470543
aF0.6625122055288661
aF0.6623680332729196
aF0.24707435489568272
aa(lp497
F0.2752901483593417
aF-0.04490892418345323
aF0.129414783120247
aF0.24755037267680288
aF0.662525552534824
aF0.6623825272150197
aF0.2470386465034281
aa(lp498
F0.27581404534846204
aF-0.04369329904715859
aF0.12943241225168997
aF0.24730301132863053
aF0.6626229302855102
aF0.6624738773480942
aF0.24678013428762371
aa(lp499
F0.27601485701383266
aF-0.04322694583730841
aF0.12943985957507506
aF0.24720858586229918
aF0.662660471841168
aF0.6625077866502298
aF0.24668288704937869
aa(lp500
F0.27640035017135034
aF-0.0423292558036028
aF0.12945770011482333
aF0.24702474281141112
aF0.6627294828422009
aF0.6625764822271368
aF0.24649708763021494
aa(lp501
F0.27656463428612804
aF-0.041945542122765425
aF0.12946779572277453
aF0.24694461575029222
aF0.6627571252718619
aF0.6626079413678713
aF0.2464184767616863
aa(lp502
F0.2768453893608841
aF-0.041290560719046736
aF0.129483467087046
aF0.24680981125821105
aF0.6628064808357325
aF0.662657673773954
aF0.2462870143091795
aa(lp503
F0.2769650558137866
aF-0.04101066152049354
aF0.1294917394058399
aF0.24675115899038738
aF0.66282634950101
aF0.6626803769181597
aF0.2462312205868118
aa(lp504
F0.2770727772069067
aF-0.04076018537618708
aF0.1294970980561196
aF0.24670064238946648
aF0.6628468498517742
aF0.6626964262078323
aF0.2461834547193843
aa(lp505
F0.27716953361457564
aF-0.04053299203080944
aF0.12950428380752402
aF0.24665309888760878
aF0.6628621432946824
aF0.6627159840134678
aF0.24613726318658205
aa(lp506
F0.27725684327804767
aF-0.04032939779595234
aF0.12951036854836795
aF0.2466106263747452
aF0.6628775554218691
aF0.6627305248232861
aF0.24609916079587596
aa(lp507
F0.2777938507009293
aF-0.03908274451984056
aF0.1295278494100998
aF0.24635665585987623
aF0.6629768327718499
aF0.6628243797803807
aF0.2458331932227598
aa(lp508
F0.27802257199537295
aF-0.03855115664011248
aF0.12953634409862727
aF0.2462487041922276
aF0.663018984277894
aF0.6628636258740831
aF0.2457218257783026
aa(lp509
F0.2784134407757443
aF-0.037640613012765126
aF0.12955432698025915
aF0.24606203279344047
aF0.6630884779954878
aF0.6629333075081838
aF0.2455332485905875
aa(lp510
F0.278580022475954
aF-0.037251426630322736
aF0.1295645069206325
aF0.24598070243490602
aF0.6631163851856755
aF0.6629650944411236
aF0.24545353385230578
aa(lp511
F0.27886473966005126
aF-0.036587039719449696
aF0.12958039502143862
aF0.24584383154328332
aF0.6631660605625795
aF0.6630155417809572
aF0.2453201540170123
aa(lp512
F0.27898609698342897
aF-0.03630313698985022
aF0.12958877282337034
aF0.2457842974719973
aF0.6631861082417645
aF0.6630384867246079
aF0.24526359304487388
aa(lp513
F0.2791935365292648
aF-0.03581853123478728
aF0.1296017009929458
aF0.24568420885237527
aF0.6632218937279359
aF0.6630749113173339
aF0.24516861785722635
aa(lp514
F0.27928195060419014
aF-0.03561154811704465
aF0.1296080872070895
aF0.24564091885473896
aF0.6632365101258246
aF0.663091277081873
aF0.24512818866512948
aa(lp515
F0.27936153743578385
aF-0.03542532564306193
aF0.12961398093967522
aF0.24560195809590876
aF0.6632497929927454
aF0.6631056824465954
aF0.24509231767146603
aa(lp516
F0.2798857884440107
aF-0.03420871803770408
aF0.1296314595077611
aF0.2453539209712496
aF0.663346400371208
aF0.6631965945356885
aF0.2448331749883185
aa(lp517
F0.2801091118888317
aF-0.03368994591133011
aF0.12963989279737534
aF0.24524858222647583
aF0.663387417901557
aF0.6632346049190638
aF0.24472459117069065
aa(lp518
F0.2804907903413906
aF-0.03280135590260721
aF0.12965766208404028
aF0.24506646190263331
aF0.6634550738225166
aF0.663302092854416
aF0.24454064669219377
aa(lp519
F0.28065346517828305
aF-0.0324215839713153
aF0.12966763580772875
aF0.24498715045166886
aF0.6634823364110433
aF0.6633327729294284
aF0.2444629169053454
aa(lp520
F0.280931543096952
aF-0.03177321580099505
aF0.12968325674778053
aF0.24485366599350114
aF0.6635307201070985
aF0.6633816304254652
aF0.24433272015378948
aa(lp521
F0.2810500749708748
aF-0.03149618244119603
aF0.12969144407935387
aF0.2447956310098962
aF0.6635503191849894
aF0.6634037658360826
aF0.24427753974213348
aa(lp522
F0.28115678868940136
aF-0.031247324402685652
aF0.1296983676403681
aF0.24474408375138235
aF0.6635688425240162
aF0.6634220652327034
aF0.2442291711946151
aa(lp523
F0.28125263243916265
aF-0.03102261417720114
aF0.1297052037903852
aF0.24469721178398046
aF0.6635839890473392
aF0.6634410197988724
aF0.2441834909927344
aa(lp524
F0.2813391427310847
aF-0.030821152779531163
aF0.12971112613382224
aF0.24465518717051332
aF0.6635992580342399
aF0.6634551098002065
aF0.24414581996619056
aa(lp525
F0.28187476968667063
aF-0.029577821029682854
aF0.1297283827213247
aF0.2444016019380987
aF0.6636976548763482
aF0.6635477295973691
aF0.24388048390124165
aa(lp526
F0.28210297170096527
aF-0.029047620779551562
aF0.1297368367606343
aF0.24429392208676504
aF0.6637393828832182
aF0.6635864790918613
aF0.24376935001705397
aa(lp527
F0.28249301540236466
aF-0.028139465711853235
aF0.12975475396435096
aF0.2441078012654423
aF0.6638082594995982
aF0.6636551648788674
aF0.2435811940833461
aa(lp528
F0.28265926211085846
aF-0.027751350828501845
aF0.12976482881506743
aF0.2440267662049282
aF0.6638360832844974
aF0.6636862857981543
aF0.24350175758814074
aa(lp529
F0.2829434783107908
aF-0.02708867323809429
aF0.12978071194910998
aF0.24389035628737404
aF0.6638853099317263
aF0.6637360102540432
aF0.2433686464171548
aa(lp530
F0.2830646288495263
aF-0.026805539479903294
aF0.1297890320887733
aF0.24383105798260643
aF0.6639052982905806
aF0.6637584695615242
aF0.24331227702300798
aa(lp531
F0.2831737089222888
aF-0.026551178214752454
aF0.12979610077957934
aF0.24377835535898856
aF0.6639241423104807
aF0.6637770980911826
aF0.24326284296087644
aa(lp532
F0.28327167480652043
aF-0.026321520377716616
aF0.1298030622629814
aF0.24373051090999975
aF0.6639395680410577
aF0.6637963363924138
aF0.24321618332877
aa(lp533
F0.2833601113662791
aF-0.026115604786580534
aF0.12980910832893217
aF0.24368752978926253
aF0.6639551239709619
aF0.6638106521032523
aF0.2431777114214356
aa(lp534
F0.2838991089628519
aF-0.024864475488144182
aF0.1298265693233414
aF0.2434321245561152
aF0.6640536936033411
aF0.6639035155625612
aF0.24291071357502617
aa(lp535
F0.28412877798866376
aF-0.02433093552373189
aF0.12983515105665477
aF0.24332371383317375
aF0.6640954567770613
aF0.6639423933139968
aF0.242798873421975
aa(lp536
F0.2845213574430403
aF-0.023417066509769026
aF0.12985333325143217
aF0.24313637582216907
aF0.6641644353174623
aF0.6640112232077431
aF0.24260956507453352
aa(lp537
F0.28468869270552877
aF-0.023026531526611792
aF0.12986351249112005
aF0.2430548339318863
aF0.664192374742233
aF0.6640423047777843
aF0.24252969818565423
aa(lp538
F0.2849748019436635
aF-0.022359666213490437
aF0.1298796547581931
aF0.2429175599768033
aF0.6642416616710964
aF0.6640921325354935
aF0.24239577855193278
aa(lp539
F0.28509676258590566
aF-0.022074759930831113
aF0.12988807583469783
aF0.24285789971690838
aF0.6642617291342887
aF0.6641145629260756
aF0.2423391075788727
aa(lp540
F0.28530529555288375
aF-0.02158832362383822
aF0.12990123684424407
aF0.24275757469058332
aF0.6642972312878995
aF0.6641505254028663
aF0.2422437368450905
aa(lp541
F0.28539418006579137
aF-0.021380569027536708
aF0.12990773648581125
aF0.24271416936452633
aF0.6643117959011624
aF0.6641666084077875
aF0.24220319174684166
aa(lp542
F0.28554612792800216
aF-0.021025157242374793
aF0.12991915932575496
aF0.24263980054639953
aF0.6643363169010569
aF0.6641944937608452
aF0.2421339705512559
aasS'object_pose_palm'
p543
(lp544
(lp545
F0.3614200476496303
aF-0.18532013897028365
aF0.4719296622975585
aF0.9325473135159991
aF0.22574919031464266
aF0.26790399245445556
aF-0.08729411179076911
aa(lp546
F0.2207849491952361
aF-0.1817864145450045
aF0.42330209383188644
aF0.8604871077906712
aF0.4142729884302331
aF0.2892757429788966
aF-0.06526387137718143
aa(lp547
F0.16246408664656473
aF-0.19546904079388622
aF0.3981737327542374
aF0.8167819109498111
aF0.48781621453373314
aF0.3023931594238274
aF-0.05883050158573797
aa(lp548
F0.07581030106066536
aF-0.23681771667037793
aF0.3459305255253614
aF0.7256540937288569
aF0.6016715334500122
aF0.33105870350422756
aF-0.04263375334828116
aa(lp549
F0.04347461628887472
aF-0.25638419520775824
aF0.3184425914586811
aF0.6796828731987667
aF0.6423196428552187
aF0.35221351349608726
aF-0.03744741904797562
aa(lp550
F0.0028592882580014134
aF-0.29195680076999925
aF0.26214489875740954
aF0.5960913850720616
aF0.701224815947209
aF0.3906233446272611
aF-0.019293023995363708
aa(lp551
F-0.009227724934932846
aF-0.30001776631254173
aF0.23022520003443614
aF0.5588610831058485
aF0.7157764648833771
aF0.41862587006328905
aF-0.009524863388417572
aa(lp552
F-0.017783786219039255
aF-0.30024872813630715
aF0.19691384711497378
aF0.5310010548560375
aF0.719605996393474
aF0.44743008599709316
aF-0.0033775495503170928
aa(lp553
F-0.023892895756778443
aF-0.2963534116076507
aF0.16551718073978772
aF0.5085341366968477
aF0.7192026541213845
aF0.4734289415709723
aF0.002368839744936434
aa(lp554
F-0.027717868180733185
aF-0.29764857646738363
aF0.14010490132622364
aF0.4860545710379584
aF0.72485398003003
aF0.48806487987581704
aF0.011416419733676145
aa(lp555
F-0.028597693392886814
aF-0.2944841885772086
aF0.09430185078345035
aF0.44688755178672723
aF0.7298164189509653
aF0.5162242591986722
aF0.03423484923928382
aa(lp556
F-0.02822538526240037
aF-0.2815351192672082
aF0.07111724509996648
aF0.43404507000259845
aF0.7225988924979349
aF0.5361590728993796
aF0.04460007079450834
aa(lp557
F-0.0295355628566637
aF-0.2602454777220436
aF0.03645663118585252
aF0.4136405498197796
aF0.7126470559132948
aF0.5635133782651485
aF0.05906218552596485
aa(lp558
F-0.0338088727662062
aF-0.24138322039770663
aF0.021901429236285047
aF0.40955815414673036
aF0.7021615088905154
aF0.579444860915663
aF0.05894902003380334
aa(lp559
F-0.03685393231981829
aF-0.21859944983259585
aF2.810568239755562e-05
aF0.39631987424251996
aF0.6920301115921395
aF0.5999928150462591
aF0.06350987185493256
aa(lp560
F-0.038259405875182506
aF-0.20594529402110395
aF-0.0088568874061081
aF0.39032384074861604
aF0.6862364126903757
aF0.6104678618259418
aF0.06368575130086873
aa(lp561
F-0.03667678800352628
aF-0.19246444974035906
aF-0.02338474300025803
aF0.37701199199779367
aF0.6816457094646289
aF0.623118915916212
aF0.07031288136410468
aa(lp562
F-0.03471363679390807
aF-0.18562828511089102
aF-0.02629037333973608
aF0.37711184137542586
aF0.6782540753029749
aF0.6261111470367173
aF0.07578192387178026
aa(lp563
F-0.03190993447247828
aF-0.17997555906364482
aF-0.025562230635049088
aF0.37434898647904924
aF0.6760602012936999
aF0.6305737972749305
aF0.0719869900683825
aa(lp564
F-0.029725869458246373
aF-0.17425653694030252
aF-0.024726324840344094
aF0.37187941200154345
aF0.6738763917736694
aF0.6347229570644007
aF0.06872466307599658
aa(lp565
F-0.02695647557128386
aF-0.17147477486918591
aF-0.026921167892404646
aF0.3682503747745575
aF0.6728104670943217
aF0.6376590507539215
aF0.07147497351049822
aa(lp566
F-0.02506554496454469
aF-0.16686988950689685
aF-0.027961131029212688
aF0.3655291274528232
aF0.6706144061566744
aF0.6414001622069596
aF0.07259894737249781
aa(lp567
F-0.022678667052975582
aF-0.16505068815530244
aF-0.031135354545291982
aF0.36320364470543437
aF0.669483118555254
aF0.6431156389453687
aF0.07923219917502093
aa(lp568
F-0.018936966314519882
aF-0.1607409155827455
aF-0.035176161188058885
aF0.35903758421625004
aF0.6666292552676081
aF0.6473401106740705
aF0.0874541608729717
aa(lp569
F-0.017527716503164814
aF-0.157977040400194
aF-0.035465338501645044
aF0.3579429466035612
aF0.6647340398728558
aF0.6493918586738194
aF0.0910808272867292
aa(lp570
F-0.015327199621777199
aF-0.15479514491655502
aF-0.037034493198820545
aF0.3529472404985877
aF0.6591320242857404
aF0.6572788366739535
aF0.09464539527070777
aa(lp571
F-0.013874940740346536
aF-0.1529564071614871
aF-0.03763540490419434
aF0.35510116531099845
aF0.6564410501000832
aF0.6583431417000986
aF0.09783975630956226
aa(lp572
F-0.012269457643950071
aF-0.1512898101970274
aF-0.03780784441263718
aF0.3577743635698523
aF0.6562248024794564
aF0.6576122666668741
aF0.09440667408738508
aa(lp573
F-0.010987237662973798
aF-0.14838689771229088
aF-0.038243114821616436
aF0.3591305800714178
aF0.653832287616378
aF0.6591207903530706
aF0.0953328372191062
aa(lp574
F-0.009718684827188268
aF-0.14620382321417172
aF-0.03921626661256131
aF0.3591598086816226
aF0.652021736684558
aF0.6604400628826681
aF0.09844191210135311
aa(lp575
F-0.009156335982623748
aF-0.14364639597972315
aF-0.039617508110064786
aF0.3592613872025498
aF0.6508422204038735
aF0.6609715191476163
aF0.10223654278557828
aa(lp576
F-0.00859390992550052
aF-0.14159385769525384
aF-0.039771178640423954
aF0.3589930313250015
aF0.6500205879229258
aF0.6613887375484689
aF0.10565120245630415
aa(lp577
F-0.007975671800846268
aF-0.13746210542867146
aF-0.03913863167192877
aF0.35919893139761666
aF0.6487921933532679
aF0.6616430667568033
aF0.1107847901984678
aa(lp578
F-0.007620236502430683
aF-0.135900145287703
aF-0.039436235485840326
aF0.35898140391567496
aF0.6486035026463366
aF0.6619848258664028
aF0.11055287567613636
aa(lp579
F-0.007145066569408581
aF-0.13289026321819772
aF-0.03911058128973707
aF0.3593653235089405
aF0.6473000028786625
aF0.6623370113671507
aF0.11475606261034252
aa(lp580
F-0.006979347920784362
aF-0.13160183560637784
aF-0.03899555119593248
aF0.35962744779662464
aF0.6466039571861634
aF0.6624871742794435
aF0.11697078805290871
aa(lp581
F-0.0067286774740069055
aF-0.12930770978222245
aF-0.038533116651012056
aF0.36006849281392816
aF0.645914571979735
aF0.6623520942676824
aF0.12014470194793096
aa(lp582
F-0.006712889495749996
aF-0.12673493290678456
aF-0.037496586419067
aF0.3609657978964914
aF0.6450619312478766
aF0.6623063166734316
aF0.12226667779154318
aa(lp583
F-0.006542708312427786
aF-0.12474926410157838
aF-0.03680202697480195
aF0.36157628117262863
aF0.6443602761484624
aF0.6621798510681863
aF0.12482096079811315
aa(lp584
F-0.006600664265951212
aF-0.12280501480524256
aF-0.03615946174922277
aF0.3619922392697995
aF0.6433448960445244
aF0.6624875915556627
aF0.12719730530429366
aa(lp585
F-0.006476826433877175
aF-0.12111727159938515
aF-0.035593565025602986
aF0.3626567659355308
aF0.6425368658184962
aF0.6624192017054905
aF0.1297198805009721
aa(lp586
F-0.0063593597652018274
aF-0.11816856726630084
aF-0.034581884847079164
aF0.36362744588709855
aF0.6412766626484322
aF0.6623368709202933
aF0.13360086810956254
aa(lp587
F-0.006321810287746921
aF-0.11690336716951696
aF-0.0341527753025514
aF0.36409812502406197
aF0.6406182021341447
aF0.6623580663167892
aF0.1353612442077218
aa(lp588
F-0.006189281403131408
aF-0.11470826828889555
aF-0.03337600565293136
aF0.36496325963132625
aF0.6396962885721325
aF0.6622630299632756
aF0.13783380082613206
aa(lp589
F-0.006124126654261763
aF-0.1137472253603975
aF-0.03301195949183147
aF0.36546082891402604
aF0.6392224491822847
aF0.6622630184515614
aF0.1387109850815776
aa(lp590
F-0.005952019658263169
aF-0.11154313920156478
aF-0.03207561197897629
aF0.36623869581839946
aF0.6385498720982947
aF0.6620300414686247
aF0.1408527696622991
aa(lp591
F-0.00593669050975662
aF-0.10935155137452787
aF-0.031162207822810734
aF0.3670323127607553
aF0.6376705608918414
aF0.6619320383528279
aF0.1432114302821036
aa(lp592
F-0.005785306337274226
aF-0.1074817716964841
aF-0.03038051498914285
aF0.3678503818694159
aF0.6368735275431249
aF0.6617449593173467
aF0.1455053789087688
aa(lp593
F-0.005809318643717726
aF-0.10579364400250271
aF-0.0296528979036198
aF0.3684564503028925
aF0.6361202672106068
aF0.6616910449010052
aF0.14749851176169318
aa(lp594
F-0.005697034776757426
aF-0.10428654032237644
aF-0.02901245417520834
aF0.36916822782623465
aF0.6353834889814111
aF0.6615701869329843
aF0.14942399156394737
aa(lp595
F-0.00572345913217806
aF-0.10292228510856025
aF-0.028418457075978648
aF0.3697069507971945
aF0.6346744421622761
aF0.6615560860039247
aF0.151157758879299
aa(lp596
F-0.005641649707177038
aF-0.10170549568941459
aF-0.027895644227269284
aF0.37032583072811637
aF0.6339888229134824
aF0.6614924232691349
aF0.15278980814778018
aa(lp597
F-0.005490223131310534
aF-0.09958380442796008
aF-0.026893180969107505
aF0.3713824691581712
aF0.6332017234953403
aF0.6613397631870781
aF0.15414394763392544
aa(lp598
F-0.005426218363739993
aF-0.09865939367082532
aF-0.02643939392846778
aF0.371960483163514
aF0.6327529848742219
aF0.6613154150409268
aF0.15469641536498144
aa(lp599
F-0.005236959404470165
aF-0.09647917419868202
aF-0.025363302836550528
aF0.3729102359832757
aF0.6319850650567104
aF0.6611176174031936
aF0.1563851956013975
aa(lp600
F-0.005216522751539693
aF-0.09453092756481005
aF-0.024456326061080308
aF0.3736007905386169
aF0.6311585174916349
aF0.6610164229492275
aF0.1584886863409827
aa(lp601
F-0.005073692312267536
aF-0.0928160058938668
aF-0.02366045161373556
aF0.3743748243051935
aF0.63036191298688
aF0.6608598955289592
aF0.1604728888735724
aa(lp602
F-0.005074803579800585
aF-0.09126359087991512
aF-0.022926388660851005
aF0.37495762449504183
aF0.6296005046344921
aF0.6608110365668263
aF0.16229220051655197
aa(lp603
F-0.004969232559349862
aF-0.08988089607551689
aF-0.02227568614886502
aF0.37562625688052165
aF0.6288603380342519
aF0.6607213088453339
aF0.16397238312314688
aa(lp604
F-0.004924684879319324
aF-0.0885890046515122
aF-0.02167136816028009
aF0.37619131104407993
aF0.6282257663964123
aF0.6606755904752004
aF0.16528837854132936
aa(lp605
F-0.0047830957000104535
aF-0.08742356637488533
aF-0.021058719346326388
aF0.37691221816320203
aF0.6277138198337417
aF0.6605858746763791
aF0.16594831233571086
aa(lp606
F-0.0046239863334752995
aF-0.08549346891951326
aF-0.020008411611224575
aF0.3779656066364109
aF0.6269391038298886
aF0.6605183109898172
aF0.1667480768587913
aa(lp607
F-0.004601761482305788
aF-0.08469251665376351
aF-0.01955504865950916
aF0.3784027168658372
aF0.6263894213486801
aF0.6606518779316909
aF0.16729247704648514
aa(lp608
F-0.004440435109131113
aF-0.08269886746137883
aF-0.018592488476974728
aF0.37918178208218617
aF0.6255000140241652
aF0.6604680876573688
aF0.1695665467566196
aa(lp609
F-0.004343740396931306
aF-0.08087168842354303
aF-0.017704209673178456
aF0.379831664105202
aF0.6247725444061616
aF0.660361065111284
aF0.17120291581750063
aa(lp610
F-0.004129017767256632
aF-0.07922959021839901
aF-0.016832871356582402
aF0.38067046999482546
aF0.624141258563823
aF0.6602248143599828
aF0.1721652611173689
aa(lp611
F-0.003996617700796956
aF-0.07770976084115774
aF-0.01598367103248219
aF0.3814018409309083
aF0.6236060008630292
aF0.6601694732487075
aF0.17269759121845998
aa(lp612
F-0.003884001343445992
aF-0.07644567124457563
aF-0.015279680046724725
aF0.38200460245551376
aF0.6229378829702464
aF0.6602129093747457
aF0.17360815637027666
aa(lp613
F-0.0038787472364101294
aF-0.07529635615684685
aF-0.014714699916481083
aF0.382443248769566
aF0.6222180866456427
aF0.6602351648536762
aF0.1751323534137949
aa(lp614
F-0.003749770357796778
aF-0.07422763850546027
aF-0.014199654239487686
aF0.38306150553938917
aF0.6216592601816543
aF0.6601050067724905
aF0.17625273682466744
aa(lp615
F-0.003637093950348197
aF-0.07321077112356705
aF-0.013596089990966176
aF0.3836838261328582
aF0.6212512360144999
aF0.660096184493056
aF0.17637077573174098
aa(lp616
F-0.0035143584651057547
aF-0.07234691243543351
aF-0.013100759366286074
aF0.38427090457426255
aF0.6208225191503425
aF0.6600877966634484
aF0.17663344051876112
aa(lp617
F-0.003226476153737168
aF-0.06885238240355449
aF-0.011175688366529157
aF0.38551262978724427
aF0.6195028577894458
aF0.6599129968645068
aF0.17919558597950536
aa(lp618
F-0.0031378511033691436
aF-0.06735890956180782
aF-0.0104000552492933
aF0.3860472489575022
aF0.6187403873671777
aF0.6599003330205053
aF0.18071913316659477
aa(lp619
F-0.002876893695569732
aF-0.06477237605077593
aF-0.008980527623890067
aF0.3870808122863202
aF0.6178173112198782
aF0.6597354337637524
aF0.18226182308249986
aa(lp620
F-0.0027377011223050918
aF-0.06363538359496726
aF-0.008308265727807712
aF0.38766582274104866
aF0.6173408351646452
aF0.6597560146661585
aF0.18255822147619558
aa(lp621
F-0.0026862426945154227
aF-0.06187799207416045
aF-0.00724701476733422
aF0.38845374547338357
aF0.6163555251463384
aF0.65985300587487
aF0.18385745806787354
aa(lp622
F-0.0024928612022096786
aF-0.06099424638167256
aF-0.006793567729674849
aF0.3888848069880743
aF0.6160547790034787
aF0.6598259877062156
aF0.1840510312612789
aa(lp623
F-0.002356463802815678
aF-0.060196921051853786
aF-0.006284304861551404
aF0.3894396498440216
aF0.61569045665287
aF0.6598658987594558
aF0.18395384304309015
aa(lp624
F-0.002245647125320882
aF-0.059477450582416325
aF-0.005814213243374444
aF0.38994414148997714
aF0.615345326940711
aF0.6599402271496131
aF0.18377320729527358
aa(lp625
F-0.002144965414111355
aF-0.05888196511800778
aF-0.005445596261207941
aF0.3903961381925643
aF0.6149881878291669
aF0.660017038475008
aF0.1837332115802941
aa(lp626
F-0.00218348913302846
aF-0.05572702117840603
aF-0.002703683310979338
aF0.38856644131891954
aF0.6131324991895001
aF0.6625741754209025
aF0.18460802036666665
aa(lp627
F-0.0018969886026005411
aF-0.054261227945446744
aF-0.0018367017680650521
aF0.3891554411352363
aF0.6128923114108301
aF0.6623467055308415
aF0.18498080689836646
aa(lp628
F-0.0015738057673528316
aF-0.05194970210795036
aF-0.0002323912482315449
aF0.3900228869370383
aF0.6126913250024938
aF0.6620321189061836
aF0.18494583387731592
aa(lp629
F-0.0014262540580332883
aF-0.05096414629292853
aF0.00046451448406359397
aF0.39023417248701725
aF0.6127055133219238
aF0.6619871209585919
aF0.18461391132101967
aa(lp630
F-0.0012128089873019166
aF-0.0493124582564283
aF0.001634966212293254
aF0.39096387871941324
aF0.6121868977271513
aF0.6621100397615293
aF0.18434951324824284
aa(lp631
F-0.001210246465935011
aF-0.048653127840410065
aF0.0021483271028878703
aF0.39129197918842307
aF0.6117831554156445
aF0.6622534137280286
aF0.18447865399025673
aa(lp632
F-0.001432785406733167
aF-0.047638492037150454
aF0.003033868156497921
aF0.3889890183936832
aF0.6104255051271208
aF0.6649221027195358
aF0.1842466921669137
aa(lp633
F-0.0018365117331317071
aF-0.047238870954115414
aF0.003394104780420487
aF0.3791583425887805
aF0.6132466211614251
aF0.6702674106903366
aF0.1758099287466332
aa(lp634
F-0.0031256422377509696
aF-0.047111955719830984
aF0.003959039586097002
aF0.3600733003534375
aF0.6181082552488716
aF0.6804876885505198
aF0.15882666305425525
aa(lp635
F-0.0026654196437478905
aF-0.04451292799198961
aF0.004114390010864916
aF0.35877524339110534
aF0.6200597797732527
aF0.6801092756996799
aF0.1557484104074745
aa(lp636
F-0.002253623466666077
aF-0.04289687178312898
aF0.005246431452624267
aF0.3590857116877752
aF0.619895349389219
aF0.680043235574622
aF0.1559756558457169
aa(lp637
F-0.0020145606220287327
aF-0.041528124989558435
aF0.006340230143373343
aF0.3585138298811683
aF0.6194591117747213
aF0.6807415846266286
aF0.15597800352369
aa(lp638
F-0.001858053058188508
aF-0.04043145429175027
aF0.007296276162030865
aF0.35827108355974535
aF0.618986560924203
aF0.6812899319170151
aF0.15601761678945997
aa(lp639
F-0.0018471595064885604
aF-0.039523764545654705
aF0.008081130557996447
aF0.3581555606992474
aF0.6183681398973002
aF0.6818065527145898
aF0.1564776743679687
aa(lp640
F-0.0017944935060360545
aF-0.03869969843593918
aF0.008791539056461947
aF0.35813307884208856
aF0.6179061142436081
aF0.6821269202708393
aF0.15695730776638447
aa(lp641
F-0.001786211400634924
aF-0.0379654778429567
aF0.009422869001167539
aF0.35799193987502703
aF0.6173058640496397
aF0.6826442243323947
aF0.1573915632429694
aa(lp642
F-0.0016953972860679623
aF-0.037246814910159576
aF0.009999230880812032
aF0.3578497516422082
aF0.6169064144234172
aF0.6829893557987186
aF0.1577833038014624
aa(lp643
F-0.0015195026902759257
aF-0.036479998274205616
aF0.010581567084614038
aF0.35704353787486015
aF0.6163976212155841
aF0.6838550455615371
aF0.15784853905437485
aa(lp644
F-0.001297603591957186
aF-0.03501163180047445
aF0.011871406549209082
aF0.35660265276243075
aF0.6159837056213437
aF0.6844519997980023
aF0.15787362802035818
aa(lp645
F-0.0011166213390806923
aF-0.032517097400763556
aF0.014762015049662555
aF0.35665611511321754
aF0.6167383906976767
aF0.6836885727750267
aF0.1581142259533729
aa(lp646
F-0.0009745486777978929
aF-0.03146060356527111
aF0.015695124748221892
aF0.3561532639420505
aF0.6163838084215285
aF0.6842907825490578
aF0.1580252455071485
aa(lp647
F-0.0007292089825647052
aF-0.029694601664655734
aF0.017337709774663396
aF0.3551088616128587
aF0.6158145852908551
aF0.6854242282533486
aF0.1576823397542452
aa(lp648
F-0.0006100730848209446
aF-0.02892115107747556
aF0.018062174441553502
aF0.3544459319370114
aF0.6154497124889319
aF0.6861297496169261
aF0.15752999530631884
aa(lp649
F-0.00042159392047663724
aF-0.027652872912812848
aF0.019266933152474047
aF0.35313107844810104
aF0.6148725829969806
aF0.6874079508069821
aF0.15716379124991828
aa(lp650
F-0.0003297273810103918
aF-0.027111876958810316
aF0.019772105407593527
aF0.3518767174814879
aF0.6147427303779405
aF0.6881897320002647
aF0.15706382114074402
aa(lp651
F-0.00023200621289978796
aF-0.026626068577964096
aF0.020275520985686718
aF0.35082684505848194
aF0.6148670077451405
aF0.6887228674269085
aF0.15658831200350232
aa(lp652
F-0.00014695508777490263
aF-0.026193405196663383
aF0.020716258238033247
aF0.3497168500463863
aF0.6149794390749779
aF0.6892926832884042
aF0.1561217828290817
aa(lp653
F-0.00014993338055543926
aF-0.02496455801056005
aF0.022544817802375758
aF0.3505809559299511
aF0.6163835423516334
aF0.6875858222063015
aF0.15617317041725967
aa(lp654
F-0.0002411410299889838
aF-0.023890984241759783
aF0.024224183704746494
aF0.35152996411248416
aF0.6175326745064865
aF0.685922228789174
aF0.15681446457783715
aa(lp655
F-0.0002737814817430906
aF-0.022181493370944133
aF0.026427733908995832
aF0.3509941035362165
aF0.6156162704351801
aF0.6873438142720202
aF0.15930545452142497
aa(lp656
F-0.0005029903396033542
aF-0.02162951166143348
aF0.027587693540020275
aF0.3579131855713301
aF0.6144610032526422
aF0.6829016919713132
aF0.16727553969022743
aa(lp657
F-0.0012613928954456621
aF-0.021182715009493536
aF0.02920798230514776
aF0.3686397021094911
aF0.6161586673623944
aF0.6734424572636014
aF0.17586507162477116
aa(lp658
F-0.0008968541545304742
aF-0.020146136002949733
aF0.02955206187454193
aF0.36580494024337484
aF0.6183768762802552
aF0.6740839925864331
aF0.17148631290615707
aa(lp659
F-0.00030952549434612453
aF-0.018756113451168288
aF0.029917231799027028
aF0.3657338410968869
aF0.6172718478416479
aF0.6749296547148116
aF0.17229098793964717
aa(lp660
F-0.00016164598554749277
aF-0.0182315758201807
aF0.030274957700769434
aF0.36571269691612196
aF0.6171973457128275
aF0.6750542958128125
aF0.17211437320585785
aa(lp661
F-7.22914686993037e-06
aF-0.017536875881983216
aF0.030967825483691952
aF0.365548169521444
aF0.6168572908894533
aF0.675654395133243
aF0.1713264625595753
aa(lp662
F2.55539225169632e-05
aF-0.01662221659776708
aF0.031940629700514284
aF0.3655447934608569
aF0.616436940941528
aF0.676137376432919
aF0.1709407792386589
aa(lp663
F5.7718913950871586e-05
aF-0.015771106014644598
aF0.032797850976305415
aF0.365390486462262
aF0.6162157807630341
aF0.6763848891756163
aF0.17108882382074264
aa(lp664
F4.3856130205216504e-05
aF-0.015022561818533675
aF0.03355816095620866
aF0.3651390958402342
aF0.6159075320255771
aF0.6768079779432546
aF0.17106230933639915
aa(lp665
F7.520199519939208e-05
aF-0.014338117857481847
aF0.03423727968446992
aF0.3649881230908571
aF0.6156742931754065
aF0.6770949777305758
aF0.17108835687330737
aa(lp666
F6.818777494621564e-05
aF-0.013732011964916496
aF0.034847267694122316
aF0.3647479449905796
aF0.6153750296948941
aF0.6774918777167406
aF0.1711060053914023
aa(lp667
F8.490379622652644e-05
aF-0.013182773933117925
aF0.03539559537394185
aF0.36458599201603964
aF0.6151406757585135
aF0.6777787478328497
aF0.17115774139422915
aa(lp668
F0.00010065565760797313
aF-0.01225496682321739
aF0.03632759957374693
aF0.36423342793954944
aF0.6148177661615236
aF0.6782647391813914
aF0.17114341344836512
aa(lp669
F9.377770941637609e-05
aF-0.011861782488257783
aF0.03672321371659877
aF0.3640274765397274
aF0.6145889427879724
aF0.6785672233608658
aF0.17120441322350674
aa(lp670
F8.771716785646588e-05
aF-0.011195423377636904
aF0.03739607616575147
aF0.36363058986355007
aF0.6142612108491227
aF0.6790660276739284
aF0.17124628177221146
aa(lp671
F0.00010873480847239936
aF-0.010289323911649134
aF0.038290288422309
aF0.363360965506056
aF0.6139341560662533
aF0.679519454382265
aF0.17119279154728634
aa(lp672
F0.00015216297974943171
aF-0.009470403357143664
aF0.039093029841435784
aF0.36316825746737535
aF0.6136793907418334
aF0.6798556820062094
aF0.17118023773413227
aa(lp673
F0.00020624655636508615
aF-0.008083947804364888
aF0.040457068633282786
aF0.3627843117618477
aF0.6133372481823571
aF0.6804062110368054
aF0.17103318717171298
aa(lp674
F0.00021499272575287165
aF-0.007494865661864497
aF0.04103627664423706
aF0.3625551547774325
aF0.6130926697122274
aF0.6807447919693231
aF0.17104872491804404
aa(lp675
F0.0003979638698507759
aF-0.00635427835261923
aF0.04203968466751552
aF0.36192340972424913
aF0.6128311139055487
aF0.6814072939620001
aF0.1706855912437901
aa(lp676
F0.0005306080957001025
aF-0.0058082824360593255
aF0.042493543741540074
aF0.3613795879988183
aF0.6126614912558217
aF0.6819216616748867
aF0.17039230571994296
aa(lp677
F0.0006849003414584609
aF-0.0052727711375349096
aF0.04292291445335819
aF0.36069342547617905
aF0.6124627785398223
aF0.6825421542807073
aF0.17007588115718317
aa(lp678
F0.0008150015247368192
aF-0.004795821585781707
aF0.04331044443462874
aF0.3599646713774745
aF0.6122721708963326
aF0.6831799669361398
aF0.1697449760173582
aa(lp679
F0.000912742495629254
aF-0.004397496171011789
aF0.0436363431074297
aF0.3593305421543109
aF0.6121523838228033
aF0.683692035040193
aF0.1694586134657892
aa(lp680
F0.0010040338220971834
aF-0.0025881193869725094
aF0.04588619197363858
aF0.3598271827954611
aF0.6127688234569835
aF0.6830428037443307
aF0.1687936484993143
aa(lp681
F0.0009615117507942583
aF-0.0017944627298509819
aF0.047107037378832706
aF0.36066822405180576
aF0.6134771157649528
aF0.6820003163111392
aF0.1686411253032223
aa(lp682
F0.0011015192946042252
aF-0.0010536742275926159
aF0.047721954269486916
aF0.36002960625769015
aF0.6133208123997163
aF0.6825822480195267
aF0.16821931632215653
aa(lp683
F0.0012223678947783367
aF-0.0003889543345266533
aF0.04829432719135493
aF0.3593490689823164
aF0.6131425264048049
aF0.6832054800874875
aF0.1677938047542324
aa(lp684
F0.0013296439157620688
aF0.0001749395072533355
aF0.04878711242255608
aF0.3587940776877936
aF0.6129827744488482
aF0.6837329279389552
aF0.16741628145787177
aa(lp685
F0.0014950992663627372
aF0.0010909715258252684
aF0.0495872200932939
aF0.35784822216425066
aF0.6127949794203879
aF0.6845710193042788
aF0.16670177749428064
aa(lp686
F0.001569838821988051
aF0.001465152910621298
aF0.04994212796365169
aF0.35727075500255084
aF0.6126287489442462
aF0.6851020855430624
aF0.16636933603119747
aa(lp687
F0.0016686320408307587
aF0.0018583475749387457
aF0.05029217106239503
aF0.35659586650824193
aF0.6124429605614521
aF0.6857102571923142
aF0.16599533496219152
aa(lp688
F0.00172019511467425
aF0.002203787996471279
aF0.05061318929880737
aF0.3557689935456057
aF0.6122445346166764
aF0.6863813007554148
aF0.16572797904053777
aa(lp689
F0.0016095299666222251
aF0.003174866895043982
aF0.05206600664949955
aF0.35640128598530674
aF0.6128071868652316
aF0.6854733548616937
aF0.16604744758349985
aa(lp690
F0.001651451449657143
aF0.004700568210102729
aF0.053961132606879084
aF0.3569601601011655
aF0.6135382905083581
aF0.6846667007720546
aF0.1654742246833084
aa(lp691
F0.0017337592304036142
aF0.005358324666435543
aF0.05452254184481731
aF0.3563807637461901
aF0.61337894288204
aF0.685191647903032
aF0.16514063492829661
aa(lp692
F0.001820143224551679
aF0.005974437291440482
aF0.055064808116705444
aF0.3556649906113218
aF0.6131658513361492
aF0.6858193885854504
aF0.16486909791996354
aa(lp693
F0.00187408746220169
aF0.006511995722916081
aF0.05555701006078524
aF0.3548688025304613
aF0.6129118741718581
aF0.6865158392653932
aF0.1646304040190324
aa(lp694
F0.001928429715308294
aF0.006977252029987113
aF0.05597303840235546
aF0.35416832601427034
aF0.6126762681381578
aF0.6871371622925304
aF0.1644235612834082
aa(lp695
F0.0019481472841264835
aF0.0077409838473334325
aF0.05692075967000419
aF0.3543666015347165
aF0.6132355194480056
aF0.6865819474212264
aF0.1642307488850565
aa(lp696
F0.0019211523208818582
aF0.00806906241751748
aF0.05742490234899991
aF0.35519598967939625
aF0.6139542729507098
aF0.6854870341542161
aF0.16432737339742398
aa(lp697
F0.0019822472787088263
aF0.008413156543126965
aF0.057698760376245606
aF0.35436328121830774
aF0.6138035596630345
aF0.6861068137212801
aF0.16410147846504824
aa(lp698
F0.0021312092532281557
aF0.010000375071380935
aF0.05912746249138787
aF0.35298568764476757
aF0.6133782332282955
aF0.6873422212036604
aF0.16348981090729608
aa(lp699
F0.0020259162991845825
aF0.010763606245656532
aF0.060250407678477766
aF0.3535712977920454
aF0.6138738687075954
aF0.686506363048049
aF0.16387563635317842
aa(lp700
F0.002051022537115421
aF0.011951214361393153
aF0.06170262763958029
aF0.35408211106429693
aF0.6145568780058378
aF0.6857143044756627
aF0.16352857535436027
aa(lp701
F0.002220842593519623
aF0.012601460094365885
aF0.06208052996118446
aF0.3534880048464543
aF0.6143990247422396
aF0.6861871130728594
aF0.16342372740270217
aa(lp702
F0.0024095047965967398
aF0.013238414562352946
aF0.06241820049637008
aF0.352787100916617
aF0.6141559918984413
aF0.6867820369212928
aF0.1633527251206129
aa(lp703
F0.002547005753266024
aF0.013791986240698828
aF0.06272477592128232
aF0.35205744554445095
aF0.6139314467086745
aF0.6873762383492793
aF0.16327167767774334
aa(lp704
F0.002629669296673409
aF0.014236235734671754
aF0.06298696393859234
aF0.35141924633744426
aF0.6137514086004274
aF0.6878708944839947
aF0.16324017356766976
aa(lp705
F0.0027168957175729425
aF0.014664493022552266
aF0.0632318932222812
aF0.35065178211570414
aF0.6135300299750768
aF0.6884827936425838
aF0.1631431055115902
aa(lp706
F0.002770464125210259
aF0.015012520690154074
aF0.06343253505754143
aF0.34995464312447433
aF0.6133621220463631
aF0.6890021912034119
aF0.16307861757845885
aa(lp707
F0.0027341583248135515
aF0.016724593024631612
aF0.06528614218665274
aF0.34982129775899534
aF0.6137160811735374
aF0.6887180427908655
aF0.16323323459861822
aa(lp708
F0.002587448567725137
aF0.017443948538917897
aF0.06639412811373155
aF0.35076798380139423
aF0.614469147064466
aF0.6875098696849399
aF0.1634615181979217
aa(lp709
F0.0018443431390832987
aF0.017684039851696337
aF0.06788321251551996
aF0.3590241779236398
aF0.6140821872896848
aF0.6815335009643431
aF0.1718045225919759
aa(lp710
F0.0016159724156872834
aF0.01811076740914333
aF0.06857224351302538
aF0.36542205426218866
aF0.6146540181436583
aF0.6762226433725647
aF0.17717250584918265
aa(lp711
F0.0017742511292352658
aF0.018681781562365746
aF0.06908038937084748
aF0.364839185499155
aF0.6158791855925598
aF0.6756207776454202
aF0.17641361141350775
aa(lp712
F0.0016186298267087673
aF0.01910137968802339
aF0.0698521237341184
aF0.35922147423070716
aF0.6177745226558592
aF0.677721015448412
aF0.17323047315185675
aa(lp713
F0.0013424899019678083
aF0.019262835019862784
aF0.0700705877949177
aF0.3591184470420931
aF0.6157872729289636
aF0.6792711386664544
aF0.17444396139609877
aa(lp714
F0.0013065964586562728
aF0.01989281838253909
aF0.07066834928633584
aF0.3596031369617789
aF0.6152386406731954
aF0.6793574104691414
aF0.17504430225091303
aa(lp715
F0.0014451604928795436
aF0.020338802998341704
aF0.07103371399159734
aF0.3597901413543782
aF0.6163799277391382
aF0.6782801531819567
aF0.1748224032095216
aa(lp716
F0.0013900727467095753
aF0.02142565454801132
aF0.07243488049750652
aF0.3609485765462462
aF0.6173942397685912
aF0.6760268837299415
aF0.17756162384982296
aa(lp717
F0.0012861266358752121
aF0.022650540832623745
aF0.07362836339074483
aF0.3606124497033702
aF0.6168339707931602
aF0.67673148986681
aF0.17750775818855039
aa(lp718
F0.0009958933701748052
aF0.023183986645592985
aF0.07460853875550558
aF0.35892876976754445
aF0.6156173888100023
aF0.6788675737462487
aF0.17698640101373056
aa(lp719
F0.0009493826705986308
aF0.024092747184985525
aF0.07547321206209343
aF0.35873554521202555
aF0.615155361524498
aF0.6794225342537416
aF0.17685505290298742
aa(lp720
F0.0009543442796079993
aF0.02450936347951585
aF0.07584565098034524
aF0.3586657341428896
aF0.6148836330044687
aF0.6797126814984441
aF0.17682669375736923
aa(lp721
F0.0008549923995797848
aF0.024922494044643112
aF0.07646574056730379
aF0.3605577611525857
aF0.6141815956206869
aF0.678819018089544
aF0.1788401776822227
aa(lp722
F0.0011608195799740206
aF0.02554485244599894
aF0.07680433115165516
aF0.3602427439143959
aF0.6141933656025371
aF0.6790849317964448
aF0.1784245793434108
aa(lp723
F0.0013488269533186714
aF0.025999920587899628
aF0.07709570963216264
aF0.3599630018099828
aF0.6141532239578348
aF0.6793617736960769
aF0.17807311776532808
aa(lp724
F0.0015587583536652017
aF0.0264630406661292
aF0.07738000910064921
aF0.3596006647942556
aF0.6141379813374473
aF0.6796757515871068
aF0.17765915248811723
aa(lp725
F0.0015123752170454752
aF0.0274295449957756
aF0.07876743302039024
aF0.3586466625605833
aF0.614622869107367
aF0.6802069601337923
aF0.17586867711428714
aa(lp726
F0.0016984679646567247
aF0.028869357527735923
aF0.07993535142120828
aF0.35789593739043846
aF0.6143642615805446
aF0.6810070364898381
aF0.1752040762748977
aa(lp727
F0.00179243326624276
aF0.02950663692762351
aF0.0804607847553232
aF0.3574498379393483
aF0.6141994046059827
aF0.6814655746457903
aF0.1749096204085783
aa(lp728
F0.0017052505665402506
aF0.03011744003386005
aF0.0813554881442089
aF0.3579837829871671
aF0.614555229314712
aF0.6808084827354914
aF0.17512650020924014
aa(lp729
F0.0016269308575075359
aF0.03064671958144294
aF0.08213427693380837
aF0.3586140506042493
aF0.6150105357383718
aF0.6800431739804293
aF0.17521211477131832
aa(lp730
F0.0016900088564526516
aF0.031107891202736604
aF0.08249516495557782
aF0.3581831268317256
aF0.6148837571318633
aF0.6804210842992506
aF0.17507130235844937
aa(lp731
F0.0017468282205176933
aF0.03153767350549819
aF0.08283826337839023
aF0.3576413280820581
aF0.614752392509778
aF0.680871977046875
aF0.17488718427456457
aa(lp732
F0.001799439758999627
aF0.03191136656153257
aF0.08313031246851721
aF0.3572014504276323
aF0.6146397324267212
aF0.681243765403079
aF0.17473424173366472
aa(lp733
F0.001884706077190157
aF0.03253220509744886
aF0.08361632173968753
aF0.3563674963504346
aF0.6144663771613891
aF0.6819358127020945
aF0.1743468561156595
aa(lp734
F0.001967358889172044
aF0.033381968688030395
aF0.08434121278692779
aF0.3557807423680541
aF0.6143019139985599
aF0.6824603782497581
aF0.1740719791837251
aa(lp735
F0.0018535724421436528
aF0.034214480046160706
aF0.08555306871526913
aF0.35644293797399024
aF0.6146624434981507
aF0.6817346020802924
aF0.17428839561995565
aa(lp736
F0.0017455042563812306
aF0.03495671028079417
aF0.08663804971936226
aF0.35708177183190076
aF0.6151133454159782
aF0.6809805924453611
aF0.1743376414585193
aa(lp737
F0.0018221313952643259
aF0.03557903903517637
aF0.08713359814734604
aF0.35663520059292225
aF0.6149764230384328
aF0.681379058223103
aF0.17417781666991305
aa(lp738
F0.001885997114889959
aF0.03615339172623447
aF0.08760215364919971
aF0.35607281510889377
aF0.6148373304646537
aF0.6818526828139031
aF0.17396587696157104
aa(lp739
F0.0019492925498397484
aF0.03665784018200721
aF0.08800048504632618
aF0.35561677373510625
aF0.6147168396237621
aF0.682241127703819
aF0.17380149881583248
aa(lp740
F0.0019321572293733158
aF0.03750643322862415
aF0.08897010443869197
aF0.3558205215601541
aF0.6150225947131834
aF0.6818678520191938
aF0.1737676517987576
aa(lp741
F0.0018655174610785197
aF0.03786465740878728
aF0.08950935130322007
aF0.35652334496306803
aF0.6154843725829795
aF0.6810429397797612
aF0.17392701279163636
aa(lp742
F0.0019532863108567833
aF0.03849482053881498
aF0.08997089495811664
aF0.35572527124802145
aF0.6153243511319075
aF0.681690669982417
aF0.17358947191158264
aa(lp743
F0.0020392517786998465
aF0.03935117796281448
aF0.09067859539370332
aF0.35514945940422654
aF0.6151565373310492
aF0.682202189500003
aF0.17335359443969148
aa(lp744
F0.0021234292801198817
aF0.04011031622745104
aF0.09129124399251486
aF0.35468434362223816
aF0.6150091453675258
aF0.6826238817635638
aF0.1731687141189538
aa(lp745
F0.0017198513969199636
aF0.040837174896891815
aF0.09290287460156645
aF0.35678288732598856
aF0.61601611599172
aF0.6803979827695086
aF0.17403649385399095
aa(lp746
F0.001808471107354992
aF0.04147386137372944
aF0.09337365022107968
aF0.35636998680252424
aF0.6158950554605324
aF0.6807562606040727
aF0.17390982379956713
aa(lp747
F0.001861497448957583
aF0.04245608764857081
aF0.09419773866812362
aF0.3556138598280286
aF0.6156433421222672
aF0.6814638563217597
aF0.17357727537270673
aa(lp748
F0.001626990336623113
aF0.0428112231393345
aF0.0948220785806121
aF0.3573704455221333
aF0.6150215621532504
aF0.6805368732801518
aF0.17579649274078835
aa(lp749
F0.0018741230157221511
aF0.04369500134998339
aF0.09542232068870946
aF0.3567474862330031
aF0.6149424097489847
aF0.6811001325177602
aF0.1751561396093051
aa(lp750
F0.0020015619567962106
aF0.04409899110180723
aF0.09569332836498382
aF0.3563760296415571
aF0.614884861827233
aF0.6814284767561172
aF0.1748369619344334
aa(lp751
F0.0020493355184100226
aF0.04448742625076316
aF0.09615004074586213
aF0.35635603072024413
aF0.6155733275051944
aF0.6810139325684532
aF0.1740686114184454
aa(lp752
F0.0022398300215589195
aF0.04607854774764086
aF0.09741782904175485
aF0.3555639959418813
aF0.6153627614583972
aF0.6817718693243755
aF0.17346479411708934
aa(lp753
F0.0022890054244148472
aF0.046749886379114675
aF0.09796629552765872
aF0.3550502998334193
aF0.6152181438340136
aF0.6822152537268885
aF0.17328666327212652
aa(lp754
F0.0022306094358397477
aF0.04792626769321784
aF0.09932323712685626
aF0.3552705987985028
aF0.615451623063634
aF0.6818870047828126
aF0.17329804963131237
aa(lp755
F0.0021337130983386243
aF0.04844232768293352
aF0.10008943542229112
aF0.3559634969954188
aF0.6158625053787687
aF0.6811130201887687
aF0.17346013087944062
aa(lp756
F0.0022310658330052247
aF0.04930133470626902
aF0.10073840551101068
aF0.3552290410019613
aF0.6156979426129537
aF0.6817229064140659
aF0.17315383553754052
aa(lp757
F0.002276799250669176
aF0.04967933880952741
aF0.1010249429911252
aF0.35481108488055546
aF0.6155935483939717
aF0.682067750313095
aF0.17302387466600022
aa(lp758
F0.002326350745735395
aF0.050032363201356705
aF0.10129838670398558
aF0.35431093122664337
aF0.6154875500239971
aF0.682462720005797
aF0.1728683764632959
aa(lp759
F0.0023693648375647247
aF0.05035080923712815
aF0.10155022429720757
aF0.3537971956409532
aF0.615385804548237
aF0.6828644594174303
aF0.1726962245726785
aa(lp760
F0.002409806022064337
aF0.05062740825632958
aF0.10175550995981392
aF0.35336942367878554
aF0.6152992203883758
aF0.6832014766444474
aF0.17254756477338734
aa(lp761
F0.0023685962142529493
aF0.0522338894168293
aF0.10358003077205613
aF0.353636046057603
aF0.6155396039672466
aF0.6828671779252818
aF0.17246727280545537
aa(lp762
F0.0022501874171002023
aF0.05294886357867351
aF0.10461562215651386
aF0.3543413937370365
aF0.6159422855980093
aF0.6821002914296124
aF0.17261654013573882
aa(lp763
F0.002322069200039245
aF0.0535731789523958
aF0.10508784455205299
aF0.3538364952832964
aF0.6158286612929469
aF0.6825045145458641
aF0.17245979867866348
aa(lp764
F0.002382054454883542
aF0.05413568204767866
aF0.10553140402815703
aF0.35331293803505526
aF0.6157059720319806
aF0.6829295813658746
aF0.17228845206984275
aa(lp765
F0.0024410295708665597
aF0.05463168205303376
aF0.10590770676516541
aF0.35288871087216556
aF0.6155996555443282
aF0.6832780766507334
aF0.17215601006401193
aa(lp766
F0.0024921499964091487
aF0.055089659064161856
aF0.1062681711823017
aF0.35235711054770946
aF0.615492570383386
aF0.6836928920506813
aF0.17198078906871384
aa(lp767
F0.002408779487352214
aF0.05549853781098965
aF0.10685107582874998
aF0.3529474555867033
aF0.6158537932091084
aF0.6829887232175333
aF0.1722747890508328
aa(lp768
F0.002338242453182454
aF0.05586045376909962
aF0.10736624214494474
aF0.35354485333432517
aF0.616291942435985
aF0.6822413146059934
aF0.17244438817768726
aa(lp769
F0.0023864962026787784
aF0.05619697788155906
aF0.10760314884331248
aF0.3531401114477198
aF0.616195532967793
aF0.6825652278651089
aF0.17233640516931276
aa(lp770
F0.0024797414471606494
aF0.05708309797809771
aF0.10830173865244061
aF0.35261462430846086
aF0.616045594338703
aF0.6830125429283893
aF0.17217612674866464
aa(lp771
F0.0025460646355271177
aF0.05787854460505068
aF0.10894355960525229
aF0.3520687861538108
aF0.6159014976472361
aF0.6834726893128468
aF0.17198255136943025
aa(lp772
F0.0024204361746403558
aF0.05865414995123444
aF0.11003139792512914
aF0.35267311281035807
aF0.6162178687906956
aF0.6828041769642293
aF0.17226627529469332
aa(lp773
F0.002304725210025116
aF0.059347079986188433
aF0.11100662327378287
aF0.353269964930422
aF0.616606204474218
aF0.6821061968988434
aF0.17241884071688204
aa(lp774
F0.0023734947662258365
aF0.05993406750564306
aF0.11144076545906284
aF0.3528687522193487
aF0.6164902494429491
aF0.6824431138748832
aF0.17232182790837444
aa(lp775
F0.0024795395801774645
aF0.060918052812738765
aF0.11218035789052329
aF0.3521299242074826
aF0.6163163349606994
aF0.6830539716934423
aF0.17203477407796874
aa(lp776
F0.0025280876255461826
aF0.06134852162259394
aF0.11250015778329747
aF0.3517135573506679
aF0.6162173406209815
aF0.6833884670464121
aF0.17191266911341546
aa(lp777
F0.0026149406007692777
aF0.062069821683540444
aF0.11303503624490714
aF0.35096043900988944
aF0.6160655611081927
aF0.683989813004067
aF0.17160399288214293
aa(lp778
F0.002331043238197217
aF0.06227354108795968
aF0.11368428193398858
aF0.3529254137208769
aF0.6170989091986852
aF0.6818155530218094
aF0.17251127578597625
aa(lp779
F0.002432551989025228
aF0.06315736257096033
aF0.11433773355895414
aF0.35252127427622143
aF0.6169727290391358
aF0.6821600479380101
aF0.17242700427102986
aa(lp780
F0.0025086419600461873
aF0.06456478593821993
aF0.11547297244433785
aF0.35182394303565423
aF0.616722951709285
aF0.6828144404293482
aF0.17215444775836516
aa(lp781
F0.0022354663548484754
aF0.06513657834173717
aF0.11638231878672348
aF0.3534921952625082
aF0.6161670589365962
aF0.6818840212723342
aF0.17440070212986164
aa(lp782
F0.002221527453271671
aF0.0662785990314671
aF0.11759196245388469
aF0.35375922915604746
aF0.6163958003636257
aF0.6815093098198819
aF0.17451557440478738
aa(lp783
F0.0023195847109624135
aF0.06678862498140789
aF0.11793954914870079
aF0.35356031707925895
aF0.6163219998571116
aF0.6817230529455306
aF0.17434441132875447
aa(lp784
F0.00245354132130976
aF0.0672895205814909
aF0.11828479281749928
aF0.35333380791680075
aF0.616271704511369
aF0.6819529704805773
aF0.17408202794769545
aa(lp785
F0.0025593712727145224
aF0.06772789522188624
aF0.11859755728265796
aF0.35308878578353936
aF0.6162201236588315
aF0.6821944433606231
aF0.17381544810427396
aa(lp786
F0.0026366685969182735
aF0.06809205089105891
aF0.11885334394405743
aF0.3528927637303466
aF0.6161614838291062
aF0.6824004320056308
aF0.17361271137448467
aa(lp787
F0.002746276854669605
aF0.06867773776155436
aF0.11926479642897075
aF0.3525734619327122
aF0.6161271871706164
aF0.6826880019830958
aF0.1732522297643964
aa(lp788
F0.0026000053902035525
aF0.06958761387349732
aF0.12057777020726687
aF0.35322632000566956
aF0.616351134040801
aF0.6821354574519458
aF0.17330223342096696
aa(lp789
F0.002664880010479098
aF0.07034887629305389
aF0.12114276968345289
aF0.35278327106974094
aF0.6162539709067609
aF0.682459336481792
aF0.17327510220402417
aa(lp790
F0.0027111849074767658
aF0.07103368381401534
aF0.12168365948534057
aF0.3523216809948118
aF0.6161357432765168
aF0.6828364726397171
aF0.17314886829267243
aa(lp791
F0.0027684969809558813
aF0.07164698584732276
aF0.12214245827782065
aF0.3519596906190983
aF0.6160343819404294
aF0.6831342656387818
aF0.17307105926972274
aa(lp792
F0.0027044079947092237
aF0.07269226049738678
aF0.12330962793011224
aF0.35235119877875354
aF0.6163168855905101
aF0.6826577460832866
aF0.17314886938030116
aa(lp793
F0.0025973348699595
aF0.07314712972401732
aF0.12396614728501174
aF0.35299600567473866
aF0.6166764588504029
aF0.6819396230666661
aF0.1733848769907591
aa(lp794
F0.0026515886622495155
aF0.07357799301961226
aF0.12426145503877076
aF0.35260081700293294
aF0.616599113684887
aF0.6822344851725394
aF0.1733040798516772
aa(lp795
F0.0026958496149561417
aF0.07396415394495373
aF0.12454069749262138
aF0.35219054879546613
aF0.6165143844005924
aF0.6825467196731848
aF0.17321029596903803
aa(lp796
F0.0027363298528542968
aF0.07430282747343195
aF0.1247776754557203
aF0.3518575520599478
aF0.6164409232041662
aF0.6828036088802178
aF0.1731360244366466
aa(lp797
F0.0026586193341312236
aF0.07605129831154109
aF0.1266975188391094
aF0.3521783060080899
aF0.6166214208023205
aF0.6824476680405145
aF0.1732444647631314
aa(lp798
F0.0025104110777915967
aF0.07683175811926149
aF0.1277979634983886
aF0.3528271498028033
aF0.6169359017833211
aF0.6817674774734217
aF0.17348257005347245
aa(lp799
F0.0026387099686209503
aF0.07806156871655548
aF0.12872056513820793
aF0.35251586437605437
aF0.6167451583715592
aF0.6821716952082695
aF0.1732043684354385
aa(lp800
F0.002639487259925022
aF0.07853528433208426
aF0.1291230870664799
aF0.35235629145295366
aF0.6165854170229967
aF0.6824235943028701
aF0.1731054745721524
aa(lp801
F0.002571827142834382
aF0.07892535774073034
aF0.12946580790689804
aF0.35209634247215355
aF0.6163497073206079
aF0.682746084892195
aF0.17320215780385836
aa(lp802
F0.002662591524616481
aF0.07942033822309899
aF0.12981198937773014
aF0.3516592183683635
aF0.6162481314424196
aF0.6830925748517329
aF0.17308543789905484
aa(lp803
F0.0027256757784220043
aF0.07983757999324989
aF0.130101423958806
aF0.35131713855539104
aF0.6161599265439835
aF0.6833664804954481
aF0.17301290822892154
aa(lp804
F0.002787252969465137
aF0.0802284893559978
aF0.1303803150118971
aF0.35086331764341927
aF0.6160737806825551
aF0.6837056568101952
aF0.17290056082469893
aa(lp805
F0.002830906628161267
aF0.08055908184955593
aF0.1306104937853993
aF0.3504956248555127
aF0.6160005183164522
aF0.6839805156512645
aF0.17282023203443653
aa(lp806
F0.002763625521238766
aF0.08229551354374445
aF0.13250000519658545
aF0.3509126586908236
aF0.6162276159888077
aF0.6835341582576699
aF0.17293029161562826
aa(lp807
F0.002593680700201023
aF0.08303603894951123
aF0.13356692947201335
aF0.35165957956444116
aF0.6165949046302616
aF0.6827464757824141
aF0.17321522303554196
aa(lp808
F0.002434622904607636
aF0.08372940167502047
aF0.1345604877214817
aF0.3531377549577219
aF0.6170969842814517
aF0.6813808492800641
aF0.17379636431334333
aa(lp809
F0.002599615834423752
aF0.08442950118525436
aF0.134977329936152
aF0.3531619579870187
aF0.6169720225295262
aF0.6815010349191474
aF0.17371958510983207
aa(lp810
F0.002706878577998506
aF0.08500822952214229
aF0.1353434315060222
aF0.3531896079773733
aF0.6168545037050437
aF0.681602835926
aF0.17368130622847172
aa(lp811
F0.0028146310305572075
aF0.08554763266883819
aF0.13567833280968253
aF0.353230044593841
aF0.6167434420749478
aF0.681700603464289
aF0.17360976208209866
aa(lp812
F0.0028849490669591304
aF0.08599919543529075
aF0.13597248845302407
aF0.35326927280582254
aF0.6166383257252981
aF0.6817845767684332
aF0.17357357811209354
aa(lp813
F0.002986893936672036
aF0.08675841767250772
aF0.1364642381521138
aF0.35336079609883253
aF0.6165410133048248
aF0.6818219024269269
aF0.17358634757487496
aa(lp814
F0.0030200133023127185
aF0.08705903355499983
aF0.13668424720826766
aF0.3534002424853397
aF0.6164405145138946
aF0.6819035493461689
aF0.17354224288698422
aa(lp815
F0.003117094481767807
aF0.08797748108309986
aF0.13733482242264253
aF0.3534488859676068
aF0.6162982020959018
aF0.6819975675664188
aF0.1735791719507409
aa(lp816
F0.003174302602852147
aF0.08877358918683245
aF0.13793282527847311
aF0.35347398898837556
aF0.6161407910326953
aF0.6821443864446445
aF0.17350994431533173
aa(lp817
F0.0032298427037268096
aF0.08947850046842631
aF0.1384490654347592
aF0.35351079797598955
aF0.6159977405147253
aF0.6822610655166393
aF0.17348411418695378
aa(lp818
F0.003273565237474435
aF0.09075310591920935
aF0.1394516760323363
aF0.35357011965943097
aF0.6159532787729499
aF0.6822277179116307
aF0.17365215163065648
aa(lp819
F0.003289552090359582
aF0.09132980038306698
aF0.13989377466007946
aF0.3536458903446522
aF0.6159931013808784
aF0.6821019739189208
aF0.17385045432617424
aa(lp820
F0.0033575132745338465
aF0.09221988956712612
aF0.14054143244524464
aF0.353658199004566
aF0.6158176331733187
aF0.6822763164053471
aF0.17376291037505434
aa(lp821
F0.003390489375075023
aF0.09260199329750793
aF0.14081441965701968
aF0.35367927895689943
aF0.6157273452819293
aF0.6823645622076508
aF0.17369343151586486
aa(lp822
F0.0034266558453551754
aF0.09295111707770973
aF0.14106280288513162
aF0.3537264823058724
aF0.6156452521347658
aF0.6824364152151253
aF0.17360598615186906
aa(lp823
F0.003454158771407201
aF0.09326263549529651
aF0.14128872935741513
aF0.3537686633656372
aF0.6155656441010673
aF0.6825096620444939
aF0.17351435629030543
aa(lp824
F0.003248671120618468
aF0.09423156143203221
aF0.14262522569294217
aF0.3533363355423358
aF0.6159622962054196
aF0.6826740140925586
aF0.1723370944446206
aa(lp825
F0.003363777183623018
aF0.09573919170216524
aF0.14374032178790944
aF0.3533338934319023
aF0.6157486678000855
aF0.6829000235812104
aF0.1722100335272463
aa(lp826
F0.0031870227805380347
aF0.09643211072804067
aF0.14469537160659662
aF0.3522829502146257
aF0.6158520726610986
aF0.6836786571997504
aF0.17089892122730044
aa(lp827
F0.003076158350216296
aF0.09754718214684321
aF0.14590834141106182
aF0.35185908511779906
aF0.6161850145171055
aF0.6838687341521263
aF0.16980802853159965
aa(lp828
F0.0031307312396270104
aF0.09803718864515312
aF0.14623554211891357
aF0.3516505933439002
aF0.6160385500803367
aF0.6840887200762513
aF0.16988522031134987
aa(lp829
F0.0031873749243976623
aF0.09848772699209796
aF0.1465339246910451
aF0.35141220283723273
aF0.6158558619785683
aF0.6843586921992324
aF0.16995352710395414
aa(lp830
F0.0032364594040932004
aF0.09889211011597501
aF0.14681159928676438
aF0.3511378081697783
aF0.6156706424323324
aF0.684656182152774
aF0.16999356446839567
aa(lp831
F0.0032794508555553936
aF0.09924632621213128
aF0.14704935574243483
aF0.3508947441844387
aF0.6155275374750232
aF0.6848986712576316
aF0.17003687606869933
aa(lp832
F0.003314719960704343
aF0.09956773940817609
aF0.1472790134644548
aF0.350617075740635
aF0.6153510133981213
aF0.6851992023897833
aF0.1700377886041683
aa(lp833
F0.0031430073635302647
aF0.10055997558344626
aF0.1485907873832273
aF0.3513687941528713
aF0.6150927667880353
aF0.6847675217115748
aF0.17115577685133732
aa(lp834
F0.0029692082622629623
aF0.10204181990748606
aF0.15028536751796442
aF0.3519397010182135
aF0.6153868209104902
aF0.6841567102724098
aF0.1713683263795408
aa(lp835
F0.0028229940176305868
aF0.10273492562239239
aF0.15125253966230842
aF0.3520971190593872
aF0.6161147960019691
aF0.6835861905527186
aF0.1707047069742195
aa(lp836
F0.002747532411383896
aF0.1034419472839799
aF0.1521099055524945
aF0.3512034529899312
aF0.6161879863645905
aF0.6842665222541474
aF0.16955184042090246
aa(lp837
F0.0029081178014287723
aF0.10409997856923872
aF0.1524778907132499
aF0.35106554323418
aF0.6160101869922594
aF0.684478670334499
aF0.16962719042821034
aa(lp838
F0.003008425825480082
aF0.1046434141632385
aF0.1528053643989512
aF0.3509558371177207
aF0.6158538683798993
aF0.6846545072150791
aF0.16971216498704766
aa(lp839
F0.0031444018686091757
aF0.10518095534499924
aF0.15312003793283005
aF0.35074846215247363
aF0.6156746937792001
aF0.6849204203171106
aF0.16971801781247384
aa(lp840
F0.00319511686854565
aF0.10558271276311026
aF0.15339018349836048
aF0.35055904987695913
aF0.6155199999793612
aF0.6851500514120095
aF0.1697435984798603
aa(lp841
F0.003228198388315978
aF0.10620340841883441
aF0.15383984775309098
aF0.3501054348112475
aF0.6153129381380804
aF0.6855562695167391
aF0.1697903825362391
aa(lp842
F0.0026369531917815325
aF0.107162843501066
aF0.1558492777464421
aF0.35199758322814007
aF0.6159967478804278
aF0.6836612735043692
aF0.17103499967161562
aa(lp843
F0.0027372548113101247
aF0.10804997841838496
aF0.15643307801612505
aF0.35201261212773965
aF0.6159185982897479
aF0.6836657749292775
aF0.17126736225605996
aa(lp844
F0.002817936234575602
aF0.10885964289148276
aF0.15698477322666243
aF0.35202310599071607
aF0.6158411110630558
aF0.6836804083385505
aF0.1714659092277618
aa(lp845
F0.0028846853434026654
aF0.10954173376151638
aF0.15745049159800573
aF0.35203357182419936
aF0.6157367727820665
aF0.6837506983064577
aF0.17153883967793782
aa(lp846
F0.0027517011309593498
aF0.11021214855222183
aF0.1583116867486748
aF0.351014053454932
aF0.6158532586971652
aF0.6844700132835322
aF0.17033701578007715
aa(lp847
F0.0028346962406186615
aF0.11078600049030776
aF0.15869139684675412
aF0.3509015037712952
aF0.6157586006205935
aF0.6846172984745471
aF0.17031921512919487
aa(lp848
F0.002790986332104506
aF0.1117348790597616
aF0.1596662275113074
aF0.35098960036765764
aF0.6161837183390421
aF0.6843062406593186
aF0.16984962373327467
aa(lp849
F0.0026921411794952055
aF0.11213622578387683
aF0.16019696627855015
aF0.3516930946607435
aF0.6159057411128982
aF0.6839231395262978
aF0.17094216698232628
aa(lp850
F0.00281724353099963
aF0.11287977738235239
aF0.16064014799965218
aF0.35149806732229016
aF0.6156921273346654
aF0.6841852528589559
aF0.17106388507553383
aa(lp851
F0.002945079077012719
aF0.11386623369311982
aF0.16131035662725818
aF0.3513698125065452
aF0.6155014969896205
aF0.6843961198338154
aF0.171169837351881
aa(lp852
F0.0027776739670135886
aF0.11478615375654147
aF0.1624992505799605
aF0.35044814047511497
aF0.6155692812609236
aF0.6850362174126481
aF0.17025258188472533
aa(lp853
F0.0027803653952634677
aF0.11608841470927264
aF0.1635406911806498
aF0.35054866202251755
aF0.6161333264280385
aF0.6845844042290263
aF0.16982212195509833
aa(lp854
F0.0026478358495852505
aF0.11673983596227383
aF0.16439660026586703
aF0.3512399067479202
aF0.6158486068096725
aF0.6842237881495534
aF0.17087664886863005
aa(lp855
F0.002782203323362903
aF0.11782228728918212
aF0.16511066639909552
aF0.35106319334799624
aF0.6156277403446575
aF0.6844765189252584
aF0.17102343299793318
aa(lp856
F0.002865866282676044
aF0.1183114847607811
aF0.1654188453241982
aF0.35095328802365416
aF0.6154996403225974
aF0.6846397980546064
aF0.17105650910704237
aa(lp857
F0.0029390888201377696
aF0.11874739733901285
aF0.16570232548174726
aF0.3508582149674121
aF0.6153714749609299
aF0.6848045134886268
aF0.17105332238777546
aa(lp858
F0.002823641323481507
aF0.11910094415381386
aF0.1662061895464361
aF0.3499369682897665
aF0.6155293721810757
aF0.6854216409752726
aF0.1698966871051415
aa(lp859
F0.0028683038353183588
aF0.11943520837933622
aF0.16643138580314293
aF0.34983056335220103
aF0.6154662444052234
aF0.6855434078000467
aF0.16985321593749897
aa(lp860
F0.002716034862874084
aF0.12117916620274319
aF0.16834369828396062
aF0.3504361139369214
aF0.6156689659699474
aF0.6849940066917054
aF0.1700866402358775
aa(lp861
F0.002496882787879129
aF0.12193387648262716
aF0.16943721997166414
aF0.3510850830446602
aF0.6159491123895519
aF0.684319710549985
aF0.17044790747566288
aa(lp862
F0.0025759489058523044
aF0.12270733007483506
aF0.16993177014377614
aF0.3511373466648741
aF0.6159562341500411
aF0.6842161833348418
aF0.1707298914998592
aa(lp863
F0.002648241182699629
aF0.12335563122478568
aF0.1703761295196386
aF0.3511352031533057
aF0.6158624362839653
aF0.6842872206249472
aF0.17078796318900957
aa(lp864
F0.0027002902458431177
aF0.12394527225964982
aF0.1707609937457027
aF0.351156587464124
aF0.6158253499292631
aF0.6842540218720874
aF0.17101059328861717
aa(lp865
F0.002749340437020631
aF0.1244505079819331
aF0.17111481159659864
aF0.35116224585370054
aF0.6157323789571896
aF0.6843356516196035
aF0.17100710661571256
aa(lp866
F0.0027888748187573087
aF0.1248924889550529
aF0.17141992261624275
aF0.3511767962153235
aF0.6156534338869423
aF0.6843950131889407
aF0.1710238961819877
aa(lp867
F0.002840091396182187
aF0.12563729062685905
aF0.1719488784830595
aF0.3511790293711941
aF0.6155302525046134
aF0.6844983635900882
aF0.17104908016123505
aa(lp868
F0.0028631420137843755
aF0.12595600776021937
aF0.17217238015362785
aF0.3511897898646913
aF0.6154627003539838
aF0.6845532972065305
aF0.17105022435367925
aa(lp869
F0.002764498785935765
aF0.12704760053757563
aF0.173340356714897
aF0.351236864624552
aF0.6154513769493449
aF0.68450786903003
aF0.17117606367666163
aa(lp870
F0.002625438489415849
aF0.12867314088106782
aF0.1750558302051755
aF0.35035337972704966
aF0.6154690924358528
aF0.685179845089773
aF0.17023185792552453
aa(lp871
F0.002457322255943001
aF0.12940492732061945
aF0.17604016493113528
aF0.3494911357847355
aF0.6155760846381886
aF0.6857715222749484
aF0.1692319392612203
aa(lp872
F0.002433117492468412
aF0.13050438092697944
aF0.17693621989668698
aF0.34963111478840686
aF0.6161938073815649
aF0.6852097336492663
aF0.1689701045413904
aa(lp873
F0.002317477575150495
aF0.1310472023745452
aF0.1776265532892691
aF0.3503369359931003
aF0.61591023269574
aF0.6848315183401028
aF0.17007177316543623
aa(lp874
F0.002434943586036631
aF0.13158681970209843
aF0.17793773687706077
aF0.350272291596471
aF0.6157864819420852
aF0.68494944815881
aF0.17017809454829552
aa(lp875
F0.002523070688249557
aF0.13205058143918028
aF0.17822240778203888
aF0.3501929730093056
aF0.6156752247280858
aF0.68507186673871
aF0.17025109900985586
aa(lp876
F0.0025810464844018
aF0.13244065736915758
aF0.1784724352919138
aF0.3501467225299196
aF0.6155825066366927
aF0.6851648561972442
aF0.1703072812790213
aa(lp877
F0.002642836515709124
aF0.13280434659934418
aF0.1787043800441636
aF0.3500864531724283
aF0.6154818788631121
aF0.6852763625061528
aF0.1703462329686763
aa(lp878
F0.002432858189232584
aF0.13383362836299315
aF0.18006359166352226
aF0.349234935826774
aF0.6155577548295171
aF0.6858554657401752
aF0.16948713869093604
aa(lp879
F0.002258814864435049
aF0.1347677963706973
aF0.18130201089013323
aF0.3494231524716193
aF0.6160280214747997
aF0.6854092804613954
aF0.1691953177012632
aa(lp880
F0.002114792626585149
aF0.1356253687032336
aF0.18240311382837268
aF0.35014237422128835
aF0.6157437514319803
aF0.6850267670679138
aF0.1702888098133079
aa(lp881
F0.0021562343296775144
aF0.1364009625950775
aF0.1829758251350966
aF0.3501245584538731
aF0.6157535118010695
aF0.6849729611006665
aF0.1705064480690265
aa(lp882
F0.0022215042694067044
aF0.13708780703351378
aF0.18345458253012112
aF0.3501082281516565
aF0.6157420934492656
aF0.6849426363665855
aF0.17070292271198825
aa(lp883
F0.0021796914279844093
aF0.1377425791793859
aF0.18409030014910732
aF0.35011439838201425
aF0.6157248564011174
aF0.6849232810620384
aF0.17083005682442298
aa(lp884
F0.0022005176452007114
aF0.13872873247949355
aF0.184857511134042
aF0.35012032425441353
aF0.6156907488748694
aF0.6849107962290797
aF0.1709908228611552
aa(lp885
F0.0022247307137279737
aF0.13912883082218128
aF0.1851416568020327
aF0.3501179298056546
aF0.6156186130283752
aF0.6849681587047797
aF0.17102567082811418
aa(lp886
F0.0022651905874882805
aF0.1398034803883275
aF0.1856321314821935
aF0.35011649503885284
aF0.6155186232289528
aF0.6850482743666975
aF0.17106760694898876
aa(lp887
F0.002080896721569636
aF0.14086507239899007
aF0.18699411336539135
aF0.34982205343159206
aF0.6151413050089302
aF0.6855229292011182
aF0.17112574132588396
aa(lp888
F0.001892481217248665
aF0.14178707102169627
aF0.18822842050226896
aF0.3489989421180639
aF0.615262876336127
aF0.6860642687695735
aF0.17019738693863246
aa(lp889
F0.001615142577624823
aF0.1431385973816234
aF0.18984438774646462
aF0.3504778236152779
aF0.615531517893688
aF0.6847560122494167
aF0.17145101143378377
aa(lp890
F0.0016166071265689697
aF0.1439034893047882
aF0.1904974239562423
aF0.35049118531161866
aF0.6155313804206346
aF0.684704398175894
aF0.1716302300147367
aa(lp891
F0.0016636923791322755
aF0.14460013466779603
aF0.1910374856136503
aF0.35051294511991293
aF0.6155341416435974
aF0.6846610217347258
aF0.17174888963718604
aa(lp892
F0.0016485022294405183
aF0.14523310435721137
aF0.19165870364335164
aF0.35053532564098827
aF0.6155046118173834
aF0.6846577277577807
aF0.17182215843962523
aa(lp893
F0.001656876070127572
aF0.14577236954856787
aF0.19210395078271209
aF0.35055584193646255
aF0.6155149763669628
aF0.6846110059697599
aF0.17192930540564824
aa(lp894
F0.001734015702233055
aF0.14656190788197856
aF0.19266260742622685
aF0.3505486151183538
aF0.6154098562565684
aF0.684694132260102
aF0.17198930928828066
aa(lp895
F0.0017698053326918872
aF0.14690183867170067
aF0.19289780467749923
aF0.3505501006289785
aF0.615352342634696
aF0.6847393277906308
aF0.17201213428081047
aa(lp896
F0.0015615153394630266
aF0.14788153683981914
aF0.1941916543961495
aF0.35011974809135343
aF0.6149420517897459
aF0.6853426450420675
aF0.17195317334613777
aa(lp897
F0.001019386898731961
aF0.1487231475026009
aF0.19599160300888813
aF0.34821216920171305
aF0.6155810360917189
aF0.6864455137159986
aF0.1691177989546405
aa(lp898
F0.0009558629946045949
aF0.14955998664452191
aF0.19684119492374763
aF0.34808736713791955
aF0.6155359384543969
aF0.6865230044766957
aF0.1692242820470727
aa(lp899
F0.000528757901010618
aF0.15024006195351292
aF0.19827385424644534
aF0.3504609570224664
aF0.6149138425543373
aF0.6852184990205787
aF0.1718536948626414
aa(lp900
F0.0005521053532852593
aF0.150937177183112
aF0.19889586167756848
aF0.34974900188773894
aF0.6152619905795113
aF0.6852204642587897
aF0.17205009150720135
aa(lp901
F0.0002617775486641605
aF0.15158049252966166
aF0.20005284202859513
aF0.3485896896802556
aF0.6158469561403952
aF0.6857536175149567
aF0.17017558851487363
aa(lp902
F0.0002908378409627044
aF0.15216538077967298
aF0.2005288478679537
aF0.3481158999597623
aF0.6157971024330536
aF0.6860325059946915
aF0.1702017906747858
aa(lp903
F0.00038863090700508307
aF0.1530333826531873
aF0.20109795752199697
aF0.3480284419589714
aF0.6157134376021804
aF0.6861363499174016
aF0.17026472231716613
aa(lp904
F0.0002826152370504764
aF0.15338835717559496
aF0.20159312281541952
aF0.3488152562307451
aF0.6154784658232155
aF0.6857261936103272
aF0.1711542068582386
aa(lp905
F0.0001885846919119083
aF0.1544266157366126
aF0.20282576252726453
aF0.3487121202873546
aF0.615458415059758
aF0.6858280309899164
aF0.1710283847942283
aa(lp906
F-0.0001323384596679522
aF0.1553698243656771
aF0.20444674682172395
aF0.3482448961644404
aF0.6157892974408009
aF0.6860467686255322
aF0.16990840094371037
aa(lp907
F-0.0002128535708614543
aF0.15619694160585562
aF0.20538812955085162
aF0.34814349344993667
aF0.6157530721700915
aF0.6861348966073908
aF0.169891629396899
aa(lp908
F-0.0002976099032497015
aF0.15692712479895843
aF0.20620412744360972
aF0.34804578758824856
aF0.6157179253202355
aF0.6862207386083278
aF0.16987249360994847
aa(lp909
F-0.0003532987607892113
aF0.15758293837211196
aF0.2069160286358815
aF0.3479647258832012
aF0.6157064656768019
aF0.6862841169576913
aF0.1698240515251357
aa(lp910
F-0.0005237636874083629
aF0.1581077186477794
aF0.2077158040616726
aF0.3475225667381163
aF0.6160303339701598
aF0.6864460100134316
aF0.16889810115275
aa(lp911
F-0.0005614886022505539
aF0.15864169399120204
aF0.2082548662254118
aF0.3474235972497078
aF0.6159982041589422
aF0.6865186223596427
aF0.16892376298333397
aa(lp912
F-0.0005862614424064772
aF0.15911553738981182
aF0.2087061619321805
aF0.3473138184435878
aF0.6159579109177425
aF0.6866091850998094
aF0.16892835887606625
aa(lp913
F-0.0007133208292360305
aF0.15949023259612954
aF0.20925782476759264
aF0.3480788744299347
aF0.6157266238776287
aF0.6862173019656208
aF0.1697870322105632
aa(lp914
F-0.0008107440717231296
aF0.16051460266349898
aF0.21069002695945688
aF0.34801659723602124
aF0.6157271237064024
aF0.6863121456018493
aF0.16952933663495384
aa(lp915
F-0.0011536492086032801
aF0.1614550310502581
aF0.21263994975940248
aF0.3476465417194008
aF0.6160860963865816
aF0.6864796399971104
aF0.16830183522208667
aa(lp916
F-0.0013400049572412365
aF0.16219809347335645
aF0.21385274504734664
aF0.34790323861414124
aF0.6155013661844967
aF0.6867617413362992
aF0.16875934173711402
aa(lp917
F-0.0013448184884116976
aF0.16347762925563958
aF0.21528547529136915
aF0.34783892533547095
aF0.6154988186890366
aF0.6868855182056869
aF0.16839706379022842
aa(lp918
F-0.0015132435932645183
aF0.163977782122109
aF0.21618695262157422
aF0.3474594488497142
aF0.6159057471225767
aF0.6869767153683862
aF0.1673171677028296
aa(lp919
F-0.001488355132662239
aF0.1649499096001009
aF0.2171970371189014
aF0.34747489921079183
aF0.6159024084804607
aF0.6870155641103523
aF0.16713776448353213
aa(lp920
F-0.0016003335939418217
aF0.16533036772340792
aF0.21783200545728215
aF0.34824536444551446
aF0.6156874496835725
aF0.6866327059286295
aF0.16789775934620954
aa(lp921
F-0.0016519710357232043
aF0.16584236805555613
aF0.2186195270718182
aF0.34835310430072497
aF0.6157100941558677
aF0.6865927480219127
aF0.16775456191215524
aa(lp922
F-0.0016544202670781827
aF0.16623023082096133
aF0.21905568470627712
aF0.3483794031566655
aF0.6157119663023702
aF0.6865944068844785
aF0.16768627386648544
aa(lp923
F-0.0018550785810158565
aF0.1670644263146464
aF0.22048093983478992
aF0.3480140933405561
aF0.615316112939846
aF0.6873074484757498
aF0.16697527739969217
aa(lp924
F-0.0019705774736081816
aF0.16843821130286546
aF0.22236923949595094
aF0.34826051852582507
aF0.615772474996938
aF0.6870102434655586
aF0.1659993844737461
aa(lp925
F-0.002017898207021085
aF0.16917625522183918
aF0.22342893460223207
aF0.3484698077728876
aF0.6156918155603963
aF0.68703489817745
aF0.16575714165299454
aa(lp926
F-0.002238788311947071
aF0.16981014893417962
aF0.22464177926866297
aF0.3479661244387321
aF0.6153724432376053
aF0.6876515286127433
aF0.16544397100960342
aa(lp927
F-0.0022650730844117617
aF0.17038524221861184
aF0.22539175880011753
aF0.34793279817076805
aF0.6153742868468818
aF0.6877097948965821
aF0.1652649177776462
aa(lp928
F-0.002295424567047122
aF0.1708862096072086
aF0.22603590935750462
aF0.3479132407144641
aF0.6153799156610591
aF0.6877481394990763
aF0.16512550666721912
aa(lp929
F-0.0024937094227363565
aF0.17131185172292168
aF0.22699714420401307
aF0.3485483315709303
aF0.6155779948939922
aF0.6872153502256897
aF0.1652660133711572
aa(lp930
F-0.0025004734661929207
aF0.17175745574009516
aF0.22759560299116882
aF0.34859924038994405
aF0.6155406059710221
aF0.6872448444950043
aF0.16517522730548365
aa(lp931
F-0.002513481366947401
aF0.17214658364669316
aF0.22809478091891722
aF0.34860919439687316
aF0.6155381988171891
aF0.6872627566674064
aF0.1650886388482601
aa(lp932
F-0.002725620330391587
aF0.17297476704689813
aF0.22957141932863023
aF0.34819858609118715
aF0.6151454563025929
aF0.6879884366479743
aF0.164395022044615
aa(lp933
F-0.002857642289616047
aF0.17433301935569526
aF0.23152030383935093
aF0.3488055640597904
aF0.615333393460209
aF0.6876046905395488
aF0.16401000860217888
aa(lp934
F-0.0030719101399228066
aF0.1748855495419378
aF0.23259653605637187
aF0.34867548906704154
aF0.6168850619720475
aF0.6867523873122696
aF0.16201661075488918
aa(lp935
F-0.003154810799837926
aF0.175914629781085
aF0.23379419934724416
aF0.3459702022370346
aF0.6156784523861617
aF0.6891542211802656
aF0.1622070339438705
aa(lp936
F-0.003242702886743609
aF0.17638402833778147
aF0.23457868714468852
aF0.34677984687348534
aF0.6155013082047553
aF0.6887321772306106
aF0.16294129448307323
aa(lp937
F-0.0034621052349593784
aF0.17671651467503816
aF0.23544378634419288
aF0.3488849101203751
aF0.616048282313141
aF0.6868832165625973
aF0.16418063270052943
aa(lp938
F-0.003403690096379086
aF0.17722770717344022
aF0.23578407291010256
aF0.3478950634575756
aF0.6168032330496386
aF0.6870599899882429
aF0.16270023564432368
aa(lp939
F-0.00328383366737095
aF0.17755095484755912
aF0.23581473886215942
aF0.34782737077515524
aF0.6166922036075887
aF0.6871734092771815
aF0.16278682910983425
aa(lp940
F-0.003140008291047547
aF0.17784021994418403
aF0.23583116568342502
aF0.3477821232230495
aF0.6165264899081508
aF0.6873250891982012
aF0.16287081926080757
aa(lp941
F-0.002921948720315981
aF0.17849464862525494
aF0.235830287881861
aF0.34775503530045127
aF0.6164265799218065
aF0.687467887503885
aF0.1627040584620809
aa(lp942
F-0.0025867844836083287
aF0.17956364968607605
aF0.23584312950642558
aF0.34765734896099165
aF0.6163776315942531
aF0.6876296798881192
aF0.16241430454438785
aa(lp943
F-0.00245689726520526
aF0.18006668800983938
aF0.23611167895602314
aF0.3478867957448691
aF0.6164043818443421
aF0.6875486590694363
aF0.16216428953774548
aa(lp944
F-0.0022405714552232725
aF0.1808618703543655
aF0.23621796673976708
aF0.3479729619319438
aF0.6162183414078641
aF0.6877811582871427
aF0.16169988182447012
aa(lp945
F-0.0022851484758704133
aF0.18135122155413352
aF0.23695715229164713
aF0.3479260063002616
aF0.6161508987223359
aF0.6879201512540638
aF0.16146649696514187
aa(lp946
F-0.0024724440426226457
aF0.18176929626455213
aF0.23793165389273668
aF0.3477788490704636
aF0.6155521152270984
aF0.6884857484924037
aF0.16165654858842898
aa(lp947
F-0.002628500452216853
aF0.1821511526967797
aF0.23870945395037552
aF0.3485114808902118
aF0.6154202754395939
aF0.6880795712222192
aF0.16230876726847832
aa(lp948
F-0.0025938599374427107
aF0.18247512480832445
aF0.23894750647867968
aF0.3478199402801342
aF0.6158194386887172
aF0.6879721330998327
aF0.16273307025525946
aa(lp949
F-0.0025276304295354657
aF0.18274170981184656
aF0.23901699040711413
aF0.3475252775715959
aF0.6159855796271151
aF0.6879911881122673
aF0.16265322689729475
aa(lp950
F-0.002666216792495124
aF0.18352762070635265
aF0.24041443015162503
aF0.3478856369991587
aF0.6164934370964555
aF0.6874996078830874
aF0.16203615259345483
aa(lp951
F-0.002778455469521768
aF0.1847788942566919
aF0.24215096505104972
aF0.3458795573717849
aF0.6161757051729341
aF0.689356611260704
aF0.15963174702450045
aa(lp952
F-0.0029105451629774515
aF0.1853750016679857
aF0.24320662608242888
aF0.3466993200745726
aF0.6159843675335913
aF0.688972659201474
aF0.16024829261779994
aa(lp953
F-0.0032360707851307735
aF0.18612920880054623
aF0.2445114597021802
aF0.34786296087815405
aF0.6175915125455215
aF0.6871093384424907
aF0.15953946566897373
aa(lp954
F-0.0032458875020092703
aF0.18668914211436072
aF0.24503856003481017
aF0.34713810257578753
aF0.6180290394886333
aF0.6873116053960031
aF0.15854968046895698
aa(lp955
F-0.0031614795241020066
aF0.18747290497303012
aF0.24551336155218356
aF0.3451264401970509
aF0.6170630605522875
aF0.6893257710200259
aF0.1579585419861876
aa(lp956
F-0.0030783705927777683
aF0.18778797948683223
aF0.24561724028473025
aF0.34457309936841857
aF0.6166841394098972
aF0.6899644023682602
aF0.1578580845459805
aa(lp957
F-0.00305527149301682
aF0.18835700846856296
aF0.24630651211581125
aF0.3448799957077284
aF0.6165314297648252
aF0.6899535087987234
aF0.1578320004596903
aa(lp958
F-0.0031156919451681975
aF0.18856911349105512
aF0.24669668049534965
aF0.3456516451583911
aF0.616363161032698
aF0.6895295994015448
aF0.15865158514878852
aa(lp959
F-0.0030496903201343573
aF0.18908468460136235
aF0.24695237080546537
aF0.3474280171008173
aF0.6163056642850538
aF0.6883027668838659
aF0.16031344985236687
aa(lp960
F-0.0028317742464788465
aF0.18964554679531978
aF0.2469796977850109
aF0.34710102109479685
aF0.6164304575902317
aF0.6883882860566208
aF0.16017471626344576
aa(lp961
F-0.0025857477066495993
aF0.19013254192797324
aF0.24701260423836122
aF0.3465355151482921
aF0.6165451308636545
aF0.6885634640815456
aF0.1602048509916263
aa(lp962
F-0.002406586719270798
aF0.1905817715554415
aF0.24704351681695913
aF0.3463278917923203
aF0.6165151756486394
aF0.6887079721593452
aF0.16014792738520445
aa(lp963
F-0.0022847443333722794
aF0.19097496077049758
aF0.24703779093931488
aF0.34628754339462586
aF0.6165715083373655
aF0.6887198085487869
aF0.15996730199895032
aa(lp964
F-0.0020768821608032617
aF0.19163217079267902
aF0.2470577364196595
aF0.3461504721811897
aF0.6165807538993177
aF0.6888307098647606
aF0.15975067347870187
aa(lp965
F-0.0019952481164193236
aF0.19191332564347022
aF0.2470553002623878
aF0.34612849360234177
aF0.616629347294805
aF0.6888316088358359
aF0.159606793840333
aa(lp966
F-0.0018498917760866318
aF0.1923751737704661
aF0.24706745316732512
aF0.34601076674236664
aF0.6167256204504763
aF0.6888393269988236
aF0.15945670245600452
aa(lp967
F-0.0017859653177074164
aF0.19257586250042893
aF0.24706907236955666
aF0.34596698129936443
aF0.6167702259638493
aF0.6888381780497798
aF0.15938412931081838
aa(lp968
F-0.0016830054168502917
aF0.19323622212982422
aF0.24769526803849193
aF0.34617728065620157
aF0.6168673825225724
aF0.6887111448571572
aF0.15910022528824916
aa(lp969
F-0.0018351933166635415
aF0.19382849963780666
aF0.24894388407506873
aF0.34504351285458623
aF0.6171620660897396
aF0.6893894366572846
aF0.1574743250252655
aa(lp970
F-0.0018604608967553449
aF0.1944194934044462
aF0.24971606000408708
aF0.3445247514369725
aF0.6170469411164917
aF0.6896577846190062
aF0.15788574419648477
aa(lp971
F-0.002129637415906993
aF0.19508696979670787
aF0.2512108708242187
aF0.34567127145902177
aF0.6168721012536786
aF0.6890318340061554
aF0.1587933075066093
aa(lp972
F-0.0023193484386760943
aF0.19554054567932977
aF0.2519892558153121
aF0.3454765492840591
aF0.6182907668681795
aF0.6882249872670431
aF0.15719048444996891
aa(lp973
F-0.0023025140467815564
aF0.19646468960875138
aF0.25272650162999194
aF0.34503603344916406
aF0.6180037672037412
aF0.6887087979985753
aF0.15716765221574389
aa(lp974
F-0.002282603019647833
aF0.19686262159184953
aF0.2529905208121799
aF0.3434679805617568
aF0.6173547798440463
aF0.6902282514397955
aF0.1564857279335726
aa(lp975
F-0.0021921465315267175
aF0.19743796018527618
aF0.2533513242060173
aF0.3440510600190586
aF0.6172595408683691
aF0.6899868095362671
aF0.1566452360357486
aa(lp976
F-0.0021295115546854926
aF0.19768368603552852
aF0.25343229739996026
aF0.3439884782953579
aF0.6174010702851604
aF0.6897997705203883
aF0.15704815121739557
aa(lp977
F-0.0019829129832945602
aF0.19834221887117112
aF0.2533885328027603
aF0.3449964856666756
aF0.6169682685773787
aF0.6898792084809557
aF0.15618661322906158
aa(lp978
F-0.0020035141823587233
aF0.19902035255463846
aF0.2533863522412624
aF0.34577998560803547
aF0.6166878303462383
aF0.6898299712110553
aF0.15577847179475882
aa(lp979
F-0.001988646167013053
aF0.19936482726170351
aF0.2533298187612009
aF0.34814121947827276
aF0.6165633787318524
aF0.6884124519859676
aF0.1572755138526381
aa(lp980
F-0.0018274901449080172
aF0.19984381019987318
aF0.2533470449833447
aF0.34765461617290067
aF0.6166343657664968
aF0.6886865190537927
aF0.15687321403921553
aa(lp981
F-0.0016911189450549147
aF0.20026290375691191
aF0.2533546560619607
aF0.3473664990883704
aF0.6166969377309405
aF0.6888319983044322
aF0.15662656357173946
aa(lp982
F-0.0014780280022016479
aF0.20095290229344354
aF0.25338335224668423
aF0.34696171582798435
aF0.6167867622504271
aF0.6890370481403607
aF0.15626773164141855
aa(lp983
F-0.001383295765007786
aF0.20125397147594548
aF0.2533936698590837
aF0.3467622798010084
aF0.6168280197348054
aF0.6891395271914602
aF0.1560955714925208
aa(lp984
F-0.0012294314765860515
aF0.20175492578478493
aF0.2534142479846376
aF0.3464839890079488
aF0.6168918925808752
aF0.6892778363802365
aF0.1558502566700029
aa(lp985
F-0.001160813049906062
aF0.2019732994050077
aF0.2534210260459919
aF0.3463482040716992
aF0.6169215659729818
aF0.6893459170386768
aF0.15573345702147057
aa(lp986
F-0.0009126740076842443
aF0.20261117201856688
aF0.25349201176404607
aF0.3458485124613446
aF0.6168180273531201
aF0.6897225248881802
aF0.15558652326713393
aa(lp987
F-0.0007747300539935886
aF0.2031391160440624
aF0.25350263930736394
aF0.3457048061580097
aF0.6169552655987383
aF0.6897472219162055
aF0.1552519149901869
aa(lp988
F-0.0006343838368776944
aF0.20362109021549346
aF0.253499557603829
aF0.3456387390651829
aF0.6170147892673385
aF0.6897720598389837
aF0.15505198272933482
aa(lp989
F-0.0005061672595939037
aF0.2040343801074896
aF0.2535209566261447
aF0.34538122314828185
aF0.6171970621475442
aF0.689781834614091
aF0.15485676546233293
aa(lp990
F-0.00038251195328625753
aF0.20441915560795224
aF0.2535346831569754
aF0.3452689463797301
aF0.6172658080873399
aF0.6897959007027138
aF0.15477045004084622
aa(lp991
F-0.0002559064344593853
aF0.20473277153138686
aF0.2535602087859462
aF0.34506428262522026
aF0.6173845721656397
aF0.6897790145131131
aF0.1548284277692924
aa(lp992
F-0.00012920863671600502
aF0.20501922457343918
aF0.25357177140376275
aF0.3448613378463847
aF0.6175044854377062
aF0.6897543670134791
aF0.15491217288822115
aa(lp993
F2.938214424680341e-05
aF0.20553928637929683
aF0.25358569205352055
aF0.34478305337427745
aF0.6176030194883874
aF0.6897325990844786
aF0.15479049772161838
aa(lp994
F9.963511574262451e-05
aF0.20576493002758028
aF0.25359133169050146
aF0.34472552717632526
aF0.6176260847221687
aF0.6897530222370404
aF0.15473557670632176
aa(lp995
F0.0003015637350667344
aF0.20635085633417544
aF0.25361024113936187
aF0.34444452815892695
aF0.6177461208420398
aF0.6897910634274206
aF0.15471259167131246
aa(lp996
F0.0004640849215210019
aF0.2068827608167344
aF0.2536297549406366
aF0.3443157081301704
aF0.6178087902455162
aF0.689832765418345
aF0.15456308610230934
aa(lp997
F0.0006680613537619062
aF0.2073686976969941
aF0.2536775339156242
aF0.34409081544812153
aF0.6177760326211147
aF0.6899626127001757
aF0.15461525577739552
aa(lp998
F0.000841112342723771
aF0.20771867569890515
aF0.25371260953781793
aF0.34367437413361546
aF0.6181631072240567
aF0.6897817356275882
aF0.15480133922405012
aa(lp999
F0.0009765510431342106
aF0.20810651384237297
aF0.25372250318675915
aF0.34345211605421455
aF0.6182945337410516
aF0.689760967000003
aF0.15486226760266364
aa(lp1000
F0.00108315013072674
aF0.20845751977006155
aF0.25373521027460005
aF0.34336863278947316
aF0.6183371070080506
aF0.6897853684286832
aF0.15476869714160008
aa(lp1001
F0.0011827428638939153
aF0.20877702198505566
aF0.2537415342132038
aF0.34329572594522656
aF0.6183781660268907
aF0.6898019546060911
aF0.15469244244815558
aa(lp1002
F0.0013498006838069676
aF0.20932106076327417
aF0.25375656506095984
aF0.34316903716853125
aF0.618445532761414
aF0.6898349618300813
aF0.15455698099136225
aa(lp1003
F0.0014200355897199257
aF0.20955275845892096
aF0.2537647910686331
aF0.3431135073041081
aF0.6184729876884759
aF0.6898509654408161
aF0.15449896467464805
aa(lp1004
F0.0016966582479360781
aF0.21017468605658157
aF0.25383222409480305
aF0.3427841299837391
aF0.618295283105358
aF0.6901405264651457
aF0.15464810652370614
aa(lp1005
F0.0018279356218036669
aF0.21064530127113296
aF0.25384827231892665
aF0.3426050039244654
aF0.6187567895938417
aF0.6898568355705843
aF0.15446486019149902
aa(lp1006
F0.001996840022333135
aF0.21112823064001357
aF0.253861476275223
aF0.34229450062668865
aF0.6189390298548937
aF0.6898228557061841
aF0.15457483594807317
aa(lp1007
F0.002130035336170122
aF0.21156533693927987
aF0.2538774149842289
aF0.34219080749064934
aF0.6189920586913815
aF0.6898534216017065
aF0.15445562226840737
aa(lp1008
F0.0022547529008436484
aF0.21196357893708978
aF0.253884709217016
aF0.34210039650838614
aF0.6190437189107353
aF0.6898735776254621
aF0.1543588017581673
aa(lp1009
F0.0023628641404501716
aF0.21231875033735909
aF0.25389753664109904
aF0.3420161437935522
aF0.6190864323668812
aF0.6898981064548678
aF0.15426454341106124
aa(lp1010
F0.0024636794897340275
aF0.21264194214930493
aF0.2539037668202507
aF0.34194224930664113
aF0.6191277455145633
aF0.6899148729565785
aF0.15418755120461974
aa(lp1011
F0.0025515189241178127
aF0.21293044527925659
aF0.2539138867524663
aF0.34187397764086463
aF0.619162304400018
aF0.68993438110228
aF0.1541128612254241
aa(lp1012
F0.002633601086480697
aF0.213193033546962
aF0.2539183133611922
aF0.34181434159192153
aF0.6191959627710999
aF0.6899472969248122
aF0.1540520789739528
aa(lp1013
F0.00302510998535499
aF0.21437000351340918
aF0.25394997104774686
aF0.34127997670820714
aF0.6195006933741632
aF0.689942476495908
aF0.15403326761992156
aa(lp1014
F0.0031873525903377
aF0.2148712766432633
aF0.25397332995640576
aF0.34105503455060565
aF0.6196209310719291
aF0.6899499984306748
aF0.15401417094135386
aa(lp1015
F0.003457549396665205
aF0.21574237222209083
aF0.2539955013570481
aF0.3408539377281411
aF0.6197307664713134
aF0.6900008870466051
aF0.1537892912364091
aa(lp1016
F0.0035734736997654615
aF0.2161150619904667
aF0.2540040542790065
aF0.3407684869621471
aF0.6197779247337006
aF0.6900214986797711
aF0.15369610816816046
aa(lp1017
F0.0037683114768066184
aF0.21675129462819465
aF0.2540245195693126
aF0.3406177307094437
aF0.6198544015885875
aF0.6900630767551571
aF0.153535117991972
aa(lp1018
F0.0038531003877132486
aF0.21702407338215393
aF0.2540306003597496
aF0.340555225073096
aF0.6198885992668755
aF0.6900778249848767
aF0.15346940619715072
aa(lp1019
F0.003928008132304539
aF0.21726902012336316
aF0.2540385850901064
aF0.3404969593505874
aF0.619917713420823
aF0.6900937588096094
aF0.15340943032332582
aa(lp1020
F0.0039955801150095005
aF0.21748939023080122
aF0.2540454996215563
aF0.3404453651233389
aF0.6199441476947649
aF0.6901075970682201
aF0.1533548550707642
aa(lp1021
F0.004057552179401902
aF0.2176891753980643
aF0.25404984288861665
aF0.3403989920443721
aF0.6199688315084423
aF0.6901184401453425
aF0.15330920632692524
aa(lp1022
F0.004398405200087996
aF0.21877410542512668
aF0.2540743378059968
aF0.34015119272313
aF0.6201097245998085
aF0.6901779276441894
aF0.15302131792189505
aa(lp1023
F0.0045457329807460645
aF0.21923646835027585
aF0.25408900860271755
aF0.3399672952466204
aF0.6202125353066793
aF0.6901835193363417
aF0.15298810034659552
aa(lp1024
F0.0047933948710085494
aF0.22003034412646774
aF0.2541096656311827
aF0.33978411674149056
aF0.6203124061509195
aF0.6902292068396538
aF0.1527838826937061
aa(lp1025
F0.004899701402947376
aF0.22036995222246156
aF0.2541175393458132
aF0.3397063554036376
aF0.6203553590947714
aF0.6902476217058819
aF0.15269918555823525
aa(lp1026
F0.005078360678150318
aF0.22094964239344064
aF0.2541365550696357
aF0.33956915671719584
aF0.6204249998881985
aF0.6902849509337806
aF0.15255259366674082
aa(lp1027
F0.005156157015305196
aF0.2211981578727622
aF0.25414210366279705
aF0.33951234014184567
aF0.6204562008605577
aF0.690298076674911
aF0.15249275079166766
aa(lp1028
F0.005286417407429189
aF0.22162184867350415
aF0.2541563257357189
aF0.33941166797297334
aF0.6205063738263306
aF0.6903255822915444
aF0.15238815609666792
aa(lp1029
F0.005342205583589221
aF0.22180282294924053
aF0.2541620465656264
aF0.3393689286600759
aF0.6205279274911969
aF0.6903369092543947
aF0.15234425878477253
aa(lp1030
F0.005392591162581062
aF0.22196596133620666
aF0.2541669764911009
aF0.33933050250972685
aF0.6205474405373735
aF0.6903468506379358
aF0.1523053181057529
aa(lp1031
F0.0057221415578704304
aF0.22298413978630596
aF0.25420641465057475
aF0.33884106537165176
aF0.6208200167221882
aF0.6903394035785273
aF0.1523179146446958
aa(lp1032
F0.0058466603052327315
aF0.22337824240611592
aF0.25421472776496357
aF0.33875175411340686
aF0.6208711593544962
aF0.6903597485184605
aF0.1522158670849464
aa(lp1033
F0.006084010984823196
aF0.22413559505287212
aF0.2542340754923307
aF0.33857723358504843
aF0.6209665977944098
aF0.6904026021763525
aF0.15202035465572478
aa(lp1034
F0.006183993622871642
aF0.22445844138511825
aF0.25424467758438857
aF0.338500770879693
aF0.621005660531539
aF0.6904232575034609
aF0.1519372344093116
aa(lp1035
F0.006357272200391506
aF0.22501256568359201
aF0.25425922437827636
aF0.3383725974239482
aF0.6210743844681142
aF0.6904547193410254
aF0.1517987971290585
aa(lp1036
F0.006431883613241485
aF0.22524962854885197
aF0.25426434991031327
aF0.33831852258403416
aF0.6211042427224932
aF0.6904669719405353
aF0.15174141691688178
aa(lp1037
F0.006556825593658333
aF0.22565379661780594
aF0.25427768026993586
aF0.3382227099720638
aF0.6211522960577932
aF0.6904927241720941
aF0.15164109412255442
aa(lp1038
F0.006610312896680848
aF0.2258264123775044
aF0.25428310183873365
aF0.33818200306696855
aF0.6211729101454336
aF0.6905033736441993
aF0.15159894290213627
aa(lp1039
F0.006658622876094533
aF0.2259820160366699
aF0.2542877682484932
aF0.33814540064197374
aF0.6211915829112068
aF0.6905127088380907
aF0.15156155276992367
aa(lp1040
F0.0069779652714275775
aF0.22699271421440048
aF0.25430957056107845
aF0.3379141672577897
aF0.6213227362869618
aF0.6905668466969539
aF0.15129277306726419
aa(lp1041
F0.007101171575984222
aF0.22738169796962454
aF0.25431760809962145
aF0.3378259502179404
aF0.62137316738588
aF0.6905867619760037
aF0.15119172727263566
aa(lp1042
F0.0073360886685302495
aF0.228129237028037
aF0.25433639018692583
aF0.3376536215963276
aF0.6214673143079725
aF0.6906286819991189
aF0.15099812141175675
aa(lp1043
F0.007435107256355822
aF0.22844794075786062
aF0.25434662697218346
aF0.33757817096098475
aF0.6215059362451703
aF0.6906487887951417
aF0.15091587139348375
aa(lp1044
F0.007606665390476386
aF0.2289948915227102
aF0.2543607837626674
aF0.33745163434059305
aF0.6215737352998256
aF0.6906795649791969
aF0.1507787272344215
aa(lp1045
F0.007679013297949011
aF0.22922799173445518
aF0.25436831043709557
aF0.337396353863948
aF0.6216016444831824
aF0.6906942071278661
aF0.15072029795327932
aa(lp1046
F0.0077464806344593184
aF0.22943943013540652
aF0.2543713313953474
aF0.33734921713282784
aF0.6216290364762997
aF0.6907033888465971
aF0.15067075145907347
aa(lp1047
F0.007804539930612586
aF0.22962790178647363
aF0.25437882897237113
aF0.33730429274839296
aF0.621650855609811
aF0.6907162654150593
aF0.15062227094347647
aa(lp1048
F0.007858337892304557
aF0.22979915471307466
aF0.2543825865002977
aF0.33726440576317485
aF0.6216720800505897
aF0.6907253107973748
aF0.15058250401243653
aa(lp1049
F0.008185857892828718
aF0.2308345341243404
aF0.25440480206587374
aF0.33702689553370974
aF0.6218060423924066
aF0.6907808815913236
aF0.1503059910952201
aa(lp1050
F0.008326038068146191
aF0.23127716608733268
aF0.2544143495407829
aF0.33692593381772123
aF0.621862937424804
aF0.6908040976529207
aF0.1501902155414427
aa(lp1051
F0.008564527957539314
aF0.23203484131473157
aF0.254433364395673
aF0.3367508726929675
aF0.6219579594862631
aF0.6908466038404772
aF0.14999372098287217
aa(lp1052
F0.008665108911789454
aF0.2323579202442961
aF0.2544436481545739
aF0.33667426787982596
aF0.6219970125459375
aF0.6908668801493152
aF0.1499103320130534
aa(lp1053
F0.008839334599207938
aF0.23291233989042698
aF0.25445803678973616
aF0.33654573026791745
aF0.622065418446073
aF0.6908980948971302
aF0.1497711890834222
aa(lp1054
F0.008912841840913122
aF0.23314865693653736
aF0.2544656241956575
aF0.33648960187520094
aF0.6220936287066953
aF0.690912868693954
aF0.14971196620676805
aa(lp1055
F0.009040144650379778
aF0.23355400054113645
aF0.25447621553912697
aF0.3363955311951784
aF0.6221431164864354
aF0.6909355934368855
aF0.14961281670524967
aa(lp1056
F0.00909397281037233
aF0.23372675597700593
aF0.2544816032369507
aF0.33635472307406256
aF0.6221636678931318
aF0.6909461188982229
aF0.14957048973316353
aa(lp1057
F0.009142588331757462
aF0.2338824868852697
aF0.2544862439071306
aF0.33631801399383787
aF0.622182290964934
aF0.6909553435681401
aF0.14953295110944773
aa(lp1058
F0.009463159646981634
aF0.23489260279304963
aF0.2545079639591122
aF0.33608600336395555
aF0.6223127764770771
aF0.6910089591877395
aF0.14926360875481956
aa(lp1059
F0.00960042785638926
aF0.23532442925828934
aF0.25451734559611455
aF0.3359874694130251
aF0.6223681817978461
aF0.6910313427349235
aF0.1491507627906857
aa(lp1060
F0.009834003567494642
aF0.23606358886235726
aF0.2545360255108551
aF0.33581665614729667
aF0.6224607450976753
aF0.6910723276100155
aF0.14895916312255042
aa(lp1061
F0.009932567672975234
aF0.2363788015377001
aF0.25454601186435166
aF0.33574195970117615
aF0.6224988763968452
aF0.6910917868092459
aF0.1488778948853143
aa(lp1062
F0.010103256790540416
aF0.23691965339642182
aF0.25456016326466563
aF0.3356165935489026
aF0.6225655278078515
aF0.6911218745209006
aF0.14874212677879317
aa(lp1063
F0.010175313803701402
aF0.23715021408966527
aF0.25456753384857833
aF0.33556188638258033
aF0.6225930833726058
aF0.6911360407018625
aF0.14868438447567156
aa(lp1064
F0.010241060633379317
aF0.2373585012282948
aF0.25457286115855304
aF0.33551345155528445
aF0.6226186626899295
aF0.6911473655844105
aF0.1486339252707561
aa(lp1065
F0.010299009100505685
aF0.2375448543214041
aF0.2545799781299523
aF0.33546917142153915
aF0.6226402420380742
aF0.6911597167084678
aF0.14858603575028423
aa(lp1066
F0.010352613122283028
aF0.23771422437119008
aF0.2545835105570996
aF0.33542970779630243
aF0.6226612618475029
aF0.6911683763347598
aF0.14854675922730415
aa(lp1067
F0.010680623398094335
aF0.23874576516545534
aF0.2546053161904438
aF0.33519245537150655
aF0.6227942982922084
aF0.6912228129047996
aF0.14827104503817498
aa(lp1068
F0.010821122414276518
aF0.2391868011418817
aF0.2546148314055321
aF0.33509170330146887
aF0.6228507358447459
aF0.6912455700924292
aF0.14815557047837094
aa(lp1069
F0.011060291977742553
aF0.23994181117927985
aF0.2546337595544699
aF0.33491710063082014
aF0.6229450695918489
aF0.6912871494673579
aF0.1479596328650027
aa(lp1070
F0.011161267312655598
aF0.24026383425725478
aF0.2546438093781252
aF0.3348407764764381
aF0.6229839985977753
aF0.6913068054421977
aF0.14787661292133497
aa(lp1071
F0.011336103180717205
aF0.24081635019588313
aF0.25465822231930796
aF0.33471263224947934
aF0.6230518954718878
aF0.6913373422041624
aF0.14773783752173075
aa(lp1072
F0.0114099401946684
aF0.24105191382122035
aF0.2546656721994718
aF0.3346567289562441
aF0.6230800138866063
aF0.691351662084715
aF0.14767887253116313
aa(lp1073
F0.011477282029614622
aF0.24126470281201867
aF0.25467110182493446
aF0.33460719525350835
aF0.6231060729717522
aF0.6913631631916689
aF0.14762731214755506
aa(lp1074
F0.011536697176935062
aF0.24145511400316122
aF0.25467834570517617
aF0.33456199149039
aF0.6231280653400864
aF0.6913756576822362
aF0.14757841305543554
aa(lp1075
F0.011591608147004606
aF0.2416281609896082
aF0.25468191140634794
aF0.3345216211382021
aF0.6231495035853581
aF0.6913844283009806
aF0.14753831188988448
aa(lp1076
F0.011922286635840385
aF0.24266557668302263
aF0.2547038679194635
aF0.3342825910193499
aF0.6232829667182335
aF0.6914388727286871
aF0.1472609181690448
aa(lp1077
F0.012063972663107325
aF0.24310914065305184
aF0.25471352292382216
aF0.334181120260821
aF0.6233395417365145
aF0.6914616577098963
aF0.14714472632757467
aa(lp1078
F0.01230523995777244
aF0.24386853143670298
aF0.25473269469324683
aF0.33400532677952016
aF0.6234341473459646
aF0.6915032179121389
aF0.1469476274836482
aa(lp1079
F0.012407151130363114
aF0.24419246584777474
aF0.254742774028618
aF0.3339285170599388
aF0.6234732620274307
aF0.6915227744809835
aF0.1468641869386399
aa(lp1080
F0.012583576924945716
aF0.24474822005351993
aF0.2547574271167847
aF0.3337995258257042
aF0.6235413399356945
aF0.6915532999760846
aF0.14672459658121925
aa(lp1081
F0.012658117971816596
aF0.24498519350180062
aF0.25476492155026964
aF0.33374327527472714
aF0.6235695875055889
aF0.6915675488710121
aF0.14666533706212798
aa(lp1082
F0.012787127434188528
aF0.24539155863401296
aF0.25477577755325653
aF0.3336489307396425
aF0.6236188279617075
aF0.6915897605260651
aF0.1465658608389405
aa(lp1083
F0.012841704334231374
aF0.24556478355981975
aF0.25478122088935395
aF0.33360800116085404
aF0.6236393442934952
aF0.691599989752198
aF0.146523458822807
aa(lp1084
F0.012934895142706238
aF0.245861015344216
aF0.2547908816804745
aF0.33353781331511073
aF0.6236740670073263
aF0.6916178769218279
aF0.14645100734941663
aasS'contact_bool'
p1085
(lp1086
I0
aI0
aI0
aI0
aI0
aI0
aI0
aI0
aI0
aI0
aI0
aI0
aI0
aI0
aI0
aI0
aI0
aI1
aI1
aI1
aI1
aI1
aI1
aI1
aI1
aI1
aI1
aI1
aI1
aI1
aI1
aI1
aI1
aI1
aI1
aI1
aI1
aI1
aI1
aI1
aI1
aI1
aI1
aI1
aI1
aI1
aI1
aI1
aI1
aI1
aI1
aI1
aI1
aI1
aI1
aI1
aI1
aI1
aI1
aI1
aI1
aI1
aI1
aI1
aI1
aI1
aI1
aI1
aI1
aI1
aI1
aI1
aI1
aI1
aI1
aI1
aI1
aI1
aI1
aI1
aI1
aI1
aI1
aI1
aI1
aI1
aI1
aI1
aI1
aI1
aI1
aI1
aI1
aI1
aI1
aI1
aI1
aI1
aI1
aI1
aI1
aI1
aI1
aI1
aI1
aI1
aI1
aI1
aI1
aI1
aI1
aI1
aI1
aI1
aI1
aI1
aI1
aI1
aI1
aI1
aI1
aI1
aI1
aI1
aI1
aI1
aI1
aI1
aI1
aI1
aI1
aI1
aI1
aI1
aI1
aI1
aI1
aI1
aI1
aI1
aI1
aI1
aI1
aI1
aI1
aI1
aI1
aI1
aI1
aI1
aI1
aI1
aI1
aI1
aI1
aI1
aI1
aI1
aI1
aI1
aI1
aI1
aI1
aI1
aI1
aI1
aI1
aI1
aI1
aI1
aI1
aI1
aI1
aI1
aI1
aI1
aI1
aI1
aI1
aI1
aI1
aI1
aI1
aI1
aI1
aI1
aI1
aI1
aI1
aI1
aI1
aI1
aI1
aI1
aI1
aI1
aI1
aI1
aI1
aI1
aI1
aI1
aI1
aI1
aI1
aI1
aI1
aI1
aI1
aI1
aI1
aI1
aI1
aI1
aI1
aI1
aI1
aI1
aI1
aI1
aI1
aI1
aI1
aI1
aI1
aI1
aI1
aI1
aI1
aI1
aI1
aI1
aI1
aI1
aI1
aI1
aI1
aI1
aI1
aI1
aI1
aI1
aI1
aI1
aI1
aI1
aI1
aI1
aI1
aI1
aI1
aI1
aI1
aI1
aI1
aI1
aI1
aI1
aI1
aI1
aI1
aI1
aI1
aI1
aI1
aI1
aI1
aI1
aI1
aI1
aI1
aI1
aI1
aI1
aI1
aI1
aI1
aI1
aI1
aI1
aI1
aI1
aI1
aI1
aI1
aI1
aI1
aI1
aI1
aI1
aI1
aI1
aI1
aI1
aI1
aI1
aI1
aI1
aI1
aI1
aI1
aI1
aI1
aI1
aI1
aI1
aI1
aI1
aI1
aI1
aI1
aI1
aI1
aI1
aI1
aI1
aI1
aI1
aI1
aI1
aI1
aI1
aI1
aI1
aI1
aI1
aI1
aI1
aI1
aI1
aI1
aI1
aI1
aI1
aI1
aI1
aI1
aI1
aI1
aI1
aI1
aI1
aI1
aI1
aI1
aI1
aI1
aI1
aI1
aI1
aI1
aI1
aI1
aI1
aI1
aI1
aI1
aI1
aI1
aI1
aI1
aI1
aI1
aI1
aI1
aI1
aI1
aI1
aI1
aI1
aI1
aI1
aI1
aI1
aI1
aI1
aI1
aI1
aI1
aI1
aI1
aI1
aI1
aI1
aI1
aI1
aI1
aI1
aI1
aI1
aI1
aI1
aI1
aI1
aI1
aI1
aI1
aI1
aI1
aI1
aI1
aI1
aI1
aI1
aI1
aI1
aI1
aI1
aI1
aI1
aI1
aI1
aI1
aI1
aI1
aI1
aI1
aI1
aI1
aI1
aI1
aI1
aI1
aI1
aI1
aI1
aI1
aI1
aI1
aI1
aI1
aI1
aI1
aI1
aI1
aI1
aI1
aI1
aI1
aI1
aI1
aI1
aI1
aI1
aI1
aI1
aI1
aI1
aI1
aI1
aI1
aI1
aI1
aI1
aI1
aI1
aI1
aI1
aI1
aI1
aI1
aI1
aI1
aI1
aI1
aI1
aI1
aI1
aI1
aI1
aI1
aI1
aI1
aI1
aI1
aI1
aI1
aI1
aI1
aI1
aI1
aI1
aI1
aI1
aI1
aI1
aI1
aI1
aI1
aI1
aI1
aI1
aI1
aI1
aI1
aI1
aI1
aI1
aI1
aI1
aI1
aI1
aI1
aI1
aI1
aI1
aI1
aI1
aI1
aI1
aI1
aI1
aI1
aI1
aI1
aI1
aI1
aI1
aI1
aI1
aI1
aI1
aI1
aI1
aI1
aI1
aI1
aI1
aI1
aI1
aI1
aI1
aI1
aI1
aI1
aI1
aI1
aI1
aI1
aI1
as.