(dp0
S'palm_pose_world'
p1
(lp2
(lp3
F0.33906634089594256
aF-0.4390824585083128
aF0.2375112485870916
aF0.8790385503083951
aF0.38458088686569997
aF0.27900066290293213
aF-0.03933698805235776
aa(lp4
F0.322887427896335
aF-0.4469877448470445
aF0.22559046998262144
aF0.7752720415467798
aF0.5576886267541361
aF0.2962141363955934
aF-0.013922736239217016
aa(lp5
F0.31730670989085963
aF-0.44740239739616156
aF0.21817454693785465
aF0.7194361695883307
aF0.6225043768418841
aF0.30801259816094795
aF-0.0053045334300854
aa(lp6
F0.31295778494304893
aF-0.44605935570892485
aF0.2051289302440617
aF0.6098864072404913
aF0.7187648301383776
aF0.3334235656765367
aF0.015633779804615073
aa(lp7
F0.31134579918861466
aF-0.43869167244475804
aF0.19656185898447776
aF0.5575433661867719
aF0.7507929970553298
aF0.35335367620717656
aF0.02442232389992102
aa(lp8
F0.31211658437913836
aF-0.4254581087068695
aF0.18225150888677671
aF0.46497711022626187
aF0.7942530446552878
aF0.3880193151309933
aF0.04898366163033788
aa(lp9
F0.3128299930773699
aF-0.4130676728159638
aF0.17239806112056008
aF0.4257827951356568
aF0.8021039083888722
aF0.4138951470753021
aF0.06347549717234821
aa(lp10
F0.3115132591118606
aF-0.39920591992660087
aF0.15671323985242813
aF0.3976816366556799
aF0.8010268177927308
aF0.4411903964049975
aF0.07454117763834991
aa(lp11
F0.30972106818295425
aF-0.3854602753500403
aF0.14088835504904954
aF0.375627857462785
aF0.7967199253988996
aF0.465792808351902
aF0.08472386238798328
aa(lp12
F0.3092036997902791
aF-0.37672602381152265
aF0.1314257192528422
aF0.35250792513985996
aF0.7983731415050057
aF0.47863124428473314
aF0.09618015196217555
aa(lp13
F0.31047631203374765
aF-0.3601286756666846
aF0.11805223184543245
aF0.3130750507715038
aF0.7964439521185589
aF0.5023906332908223
aF0.12355037555522672
aa(lp14
F0.3096041845571626
aF-0.34699055679491353
aF0.10894624396967485
aF0.30168396810364195
aF0.7871023687937669
aF0.5202172585032314
aF0.13722480965140324
aa(lp15
F0.3039681955187555
aF-0.32812759404647895
aF0.0953289575465078
aF0.2979883545355167
aF0.7731973111888314
aF0.5412527523115201
aF0.1428786780691262
aa(lp16
F0.2978094157087285
aF-0.30804326649542696
aF0.0829603436397684
aF0.29665508351742953
aF0.7582630260218511
aF0.5615973513506652
aF0.14711002599200945
aa(lp17
F0.29344823054676195
aF-0.29480415935427956
aF0.07617813661416914
aF0.2902025340823429
aF0.7520735541685877
aF0.5724178925532118
aF0.15001871422377458
aa(lp18
F0.28774066725368164
aF-0.27607917369426255
aF0.0670306478081222
aF0.28870313351734594
aF0.7404306053799976
aF0.5881897053989834
aF0.149819524016508
aa(lp19
F0.2859217891964405
aF-0.26556794530992256
aF0.06351691473375472
aF0.2810714643099992
aF0.7365386883182649
aF0.5959883740989311
aF0.15266777819813626
aa(lp20
F0.28704793963799946
aF-0.2527485443947846
aF0.061241148395566575
aF0.2653402479857478
aF0.731392067718659
aF0.6060256288233267
aF0.16550871060575006
aa(lp21
F0.28548256178613873
aF-0.24216337580719174
aF0.058553309503213066
aF0.26051203481938534
aF0.7265219707917702
aF0.6134887831383611
aF0.16712515859235147
aa(lp22
F0.2854952054940074
aF-0.23697387475939655
aF0.05782505163441773
aF0.25489387997980345
aF0.7245930618958668
aF0.616774107288002
aF0.17199914296386004
aa(lp23
F0.28464246151648276
aF-0.23019776912124365
aF0.056616537678368356
aF0.25090981236304205
aF0.7213590279557225
aF0.6213250096622033
aF0.17504471204518396
aa(lp24
F0.28546466311646856
aF-0.22792609248630682
aF0.05680146179355783
aF0.2464780477765099
aF0.7201878663144395
aF0.6226236530431924
aF0.18143262068571334
aa(lp25
F0.2868470537472148
aF-0.22380386756104753
aF0.0571802213041685
aF0.23931511151796264
aF0.7177932556361731
aF0.6249214539951166
aF0.19228701437954107
aa(lp26
F0.2872656216067446
aF-0.22155442439108528
aF0.057214074140990015
aF0.23636802265900073
aF0.716562322822572
aF0.6261559330363863
aF0.19646206478281408
aa(lp27
F0.2884347306876818
aF-0.21893192585367516
aF0.05765242819901245
aF0.23108492689931207
aF0.7149613971407762
aF0.6272829105724815
aF0.2048074882961197
aa(lp28
F0.2889716503470423
aF-0.21786839773657493
aF0.05786981596843099
aF0.22891305959308977
aF0.7142501488106192
aF0.6276851713421676
aF0.2084630944529331
aa(lp29
F0.2894869103688011
aF-0.21707579422459328
aF0.058117048656695425
aF0.22680299271688062
aF0.713724776690856
aF0.6279184431622555
aF0.21183902938066845
aa(lp30
F0.2900403829481979
aF-0.21492797029002286
aF0.05825913691009471
aF0.22558321398715078
aF0.7113510485925361
aF0.6284542734751036
aF0.21940174426017303
aa(lp31
F0.28993380767130605
aF-0.2129938535571114
aF0.05805817029904256
aF0.22536661472379452
aF0.709876545777872
aF0.629387952456243
aF0.2217114882574912
aa(lp32
F0.290076781784849
aF-0.21064850112852354
aF0.05798507315784268
aF0.22480666812537506
aF0.7077755108001996
aF0.6302415896716971
aF0.2265200364779598
aa(lp33
F0.2901725254912332
aF-0.20971874784215086
aF0.057973766142110486
aF0.22464009502384522
aF0.706880700920919
aF0.6305317125423557
aF0.22866189418360025
aa(lp34
F0.2902749009167813
aF-0.20899347027466375
aF0.05799499132706175
aF0.22435238912106725
aF0.7061726417771905
aF0.6307111967128625
aF0.23062868824611144
aa(lp35
F0.290312383101033
aF-0.2082443523309844
aF0.05799409918292074
aF0.22400839365773642
aF0.705540194024834
aF0.6309465600201882
aF0.23224924668332378
aa(lp36
F0.29046908595541365
aF-0.2077619577430478
aF0.058066109242576686
aF0.22387527197025606
aF0.7049273703114373
aF0.631022751174522
aF0.23402468392497205
aa(lp37
F0.2905180703431471
aF-0.2071590385642525
aF0.058095519993012074
aF0.22359684224085377
aF0.7043810997448964
aF0.631229840263956
aF0.23537333583570955
aa(lp38
F0.2906366141007116
aF-0.20676644963475338
aF0.058144668140920924
aF0.22349751326256065
aF0.7038980733363627
aF0.6312732850645284
aF0.23679189910688833
aa(lp39
F0.2906812225877995
aF-0.20587913033965083
aF0.05809211749242078
aF0.2242266711023269
aF0.7028198635437255
aF0.6314866800289431
aF0.23872832324793664
aa(lp40
F0.29056260240499104
aF-0.20456487255769504
aF0.057906782522427966
aF0.22520296036455498
aF0.7015663325428744
aF0.6320253150815223
aF0.24006730052525765
aa(lp41
F0.2905819427031921
aF-0.20377416471857263
aF0.0578274698219997
aF0.22599267720842153
aF0.7006242743855735
aF0.632199471098532
aF0.24161284057887994
aa(lp42
F0.2904799022671094
aF-0.2028356877505153
aF0.05771422204667176
aF0.2265181116083284
aF0.6997746367841275
aF0.6325448555414441
aF0.24267675734419403
aa(lp43
F0.2904944787924982
aF-0.20219801053455616
aF0.05765046772339305
aF0.2271897007222057
aF0.6990077231644857
aF0.6326688221112339
aF0.24393278658380496
aa(lp44
F0.29042574243018493
aF-0.20094209815225542
aF0.05751286026564709
aF0.22818508154310294
aF0.6977096173090648
aF0.6330092860452329
aF0.245829416986882
aa(lp45
F0.2904000780885886
aF-0.2004006334671522
aF0.05747080041732648
aF0.22861754613135957
aF0.6971307826828762
aF0.6331769268434894
aF0.24663671411586446
aa(lp46
F0.2903539938555382
aF-0.1994933517406961
aF0.057390112200281077
aF0.22938635311795688
aF0.6961615942135182
aF0.63342475640256
aF0.24802018813333407
aa(lp47
F0.29033380058416935
aF-0.19910195680886533
aF0.05735918685041745
aF0.22970691264730717
aF0.6957448488539308
aF0.6335354211546379
aF0.24860955274823832
aa(lp48
F0.29033906736370585
aF-0.19814863581310793
aF0.057263998191038334
aF0.2307604617332366
aF0.6947117363139049
aF0.6338413535455975
aF0.24974056791772514
aa(lp49
F0.290248736224765
aF-0.1963440286968135
aF0.056985979983087715
aF0.2328458203963651
aF0.6929035718774723
aF0.6343720930282893
aF0.25147467385462813
aa(lp50
F0.2902066588541242
aF-0.19558656434814964
aF0.05688509317598561
aF0.2336878745533068
aF0.6921455199397505
aF0.6346038106750506
aF0.2521954797191952
aa(lp51
F0.2901340887287548
aF-0.19432347928456106
aF0.05669579367237387
aF0.2351140045819349
aF0.6909033772181044
aF0.6349226825627832
aF0.2534701468917849
aa(lp52
F0.2900989767988733
aF-0.19378026498920536
aF0.056616359438290936
aF0.23571870893371635
aF0.6903740596329938
aF0.6350605152963242
aF0.2540049014409923
aa(lp53
F0.2900685668999616
aF-0.19329533230347745
aF0.05654683540771707
aF0.2362695103793862
aF0.6898954495965246
aF0.6351817816912791
aF0.25448986482488173
aa(lp54
F0.29001660459135303
aF-0.19281172229153906
aF0.056477318391258
aF0.23671690606144855
aF0.6894700018761313
aF0.6353291507924743
aF0.2548589669816159
aa(lp55
F0.2900104665084984
aF-0.19246709847667026
aF0.056423152483864106
aF0.23722187814235976
aF0.6890857131538394
aF0.6353775999068497
aF0.2553075909456814
aa(lp56
F0.2899671808023269
aF-0.19207605311073037
aF0.056367367472154026
aF0.23758684625791682
aF0.6887420859691509
aF0.6354942123433551
aF0.2556050382488163
aa(lp57
F0.290045799329831
aF-0.19120559662581732
aF0.05627332083694683
aF0.23877940200368292
aF0.6878002310974354
aF0.6357039857425199
aF0.2565066895660857
aa(lp58
F0.29007482632365633
aF-0.1895442090846569
aF0.05607528616502523
aF0.24063127183107094
aF0.6862422101508762
aF0.6361727779836008
aF0.2577836623543668
aa(lp59
F0.2900795591997769
aF-0.1888339970010791
aF0.05598567186033433
aF0.24140778380924843
aF0.6855939309527923
aF0.6363593797063284
aF0.25832147339464834
aa(lp60
F0.29008668752178046
aF-0.1882010853189427
aF0.05591015308358675
aF0.24211438696848225
aF0.6850052422063226
aF0.6365246711922811
aF0.2588141895961111
aa(lp61
F0.2900663184877133
aF-0.18757828374230573
aF0.055836982389508044
aF0.2426939427429467
aF0.6844808933887887
aF0.636717609403269
aF0.25918380083900916
aa(lp62
F0.29009032090871506
aF-0.18711961068032384
aF0.0557759809759583
aF0.24333438349278852
aF0.6840093951124848
aF0.6367934164403903
aF0.25964142578990157
aa(lp63
F0.29007161253425023
aF-0.18661624154895415
aF0.05571723600952311
aF0.24380804862038327
aF0.6835864004521922
aF0.636945537073113
aF0.25993778360865416
aa(lp64
F0.2900876106901181
aF-0.18624440741085638
aF0.05566671142172529
aF0.24433148716052036
aF0.683207133147272
aF0.6370033456945228
aF0.260301508202697
aa(lp65
F0.2900765707775288
aF-0.18554004263838839
aF0.05556738355359454
aF0.2451600216061218
aF0.6825744281143705
aF0.6371515121528061
aF0.2608192179495571
aa(lp66
F0.2901578847564526
aF-0.18458792772972865
aF0.055486990737528344
aF0.2460445670200253
aF0.6817763263242625
aF0.637419990340815
aF0.26141703811656225
aa(lp67
F0.2902677137286892
aF-0.18383045575731785
aF0.055416033813909596
aF0.24696270728950567
aF0.6810617683646618
aF0.6375613052178473
aF0.26206844710714905
aa(lp68
F0.2903065182218654
aF-0.18301545174135223
aF0.05534843542456494
aF0.2476414582103677
aF0.6804218684880781
aF0.637811363251524
aF0.2624813402241536
aa(lp69
F0.2903878996758573
aF-0.18240099173202184
aF0.05528919148030177
aF0.24839390457953894
aF0.6798483675828814
aF0.6379190297350843
aF0.2629942523411318
aa(lp70
F0.2904156037341046
aF-0.18174241630486376
aF0.055235148549926505
aF0.24895029977073543
aF0.679332860708341
aF0.638115576528395
aF0.26332323026599236
aa(lp71
F0.29047630514039136
aF-0.18124394878354977
aF0.05518586365242162
aF0.24956580384415
aF0.6788721070385475
aF0.6381982276818573
aF0.2637282579103013
aa(lp72
F0.29053470967938355
aF-0.18030006316598085
aF0.05510197608818963
aF0.25057209300339184
aF0.6780680040458602
aF0.638434446259021
aF0.26427044088792884
aa(lp73
F0.2905627599053011
aF-0.17989251057454161
aF0.05508008362728878
aF0.25101670089006933
aF0.6776982297995325
aF0.6385590256919578
aF0.2644959279614392
aa(lp74
F0.29060437024888464
aF-0.1792089058251096
aF0.05502282758899438
aF0.25175422931920144
aF0.6771147816881944
aF0.6387219405180038
aF0.26489557025393856
aa(lp75
F0.2907390347756475
aF-0.17829708145275852
aF0.054966596135535506
aF0.25248637051454753
aF0.6764325150767203
aF0.6389485872533586
aF0.2653947778278808
aa(lp76
F0.2908878851607623
aF-0.17755934374312624
aF0.05491287032252874
aF0.25325138422547727
aF0.67582424984093
aF0.6390658125669767
aF0.26593271126909884
aa(lp77
F0.29108084441029874
aF-0.17618361341662425
aF0.054810382858526824
aF0.25444698444732433
aF0.6748053197571529
aF0.6393551524904084
aF0.26668239821382356
aa(lp78
F0.29116173855893984
aF-0.17559544626503154
aF0.05477034450317675
aF0.25495366278845116
aF0.674368861848665
aF0.6394810275742938
aF0.26700053065905033
aa(lp79
F0.2912930059711519
aF-0.17459462758599167
aF0.05469507865611241
aF0.255840060055295
aF0.6736341402725409
aF0.6396797123233099
aF0.2675308848939598
aa(lp80
F0.2913484162822765
aF-0.1741614446909938
aF0.05467221734863585
aF0.2562330935598367
aF0.6733002105524591
aF0.6397854395681696
aF0.26774245003610136
aa(lp81
F0.29144208074830635
aF-0.17341979137762933
aF0.05464161863535698
aF0.25694165563263904
aF0.6727085370029253
aF0.6399797484205626
aF0.2680860523333798
aa(lp82
F0.2914842949769805
aF-0.17310016520528876
aF0.05463761475473464
aF0.2572498839105427
aF0.6724397348376414
aF0.6400779077494378
aF0.26823044616634584
aa(lp83
F0.29152676477341455
aF-0.17280749353147756
aF0.054648610223976726
aF0.2575382817384824
aF0.6721698478283967
aF0.6401922153244834
aF0.268357329967844
aa(lp84
F0.2917913489847742
aF-0.17118937336136192
aF0.05455815021570572
aF0.2592166195665819
aF0.6709342489567333
aF0.6406376251717067
aF0.26877018237091344
aa(lp85
F0.2918945521381746
aF-0.1704795535468782
aF0.054523303152595806
aF0.25990885656897084
aF0.6704064470350479
aF0.6408466776478744
aF0.2689202814934849
aa(lp86
F0.29206269725288103
aF-0.1692696125697441
aF0.054457343056218036
aF0.2611117667311223
aF0.6695156814746905
aF0.6411880856632879
aF0.269160242861907
aa(lp87
F0.2921345144717179
aF-0.16875269243691776
aF0.05443312128262841
aF0.2616206433115527
aF0.6691324597434495
aF0.641337156922302
aF0.2692638881501729
aa(lp88
F0.29225091217179755
aF-0.16787159653725034
aF0.054385121793505464
aF0.2625062048416262
aF0.668487713371563
aF0.6415789064984341
aF0.26942749716236986
aa(lp89
F0.2923014276817485
aF-0.16749488424304673
aF0.05436826447576418
aF0.2628792495121475
aF0.6682089105019055
aF0.6416862557753749
aF0.26949972402725575
aa(lp90
F0.2923493851569574
aF-0.16715394820935336
aF0.05435950650589444
aF0.26321092597982276
aF0.667947929791203
aF0.6417933317508377
aF0.2695679707469891
aa(lp91
F0.29238599458947345
aF-0.16683019392355553
aF0.05435268376782895
aF0.26348771347999655
aF0.6677134986988482
aF0.6419059902628557
aF0.26961010397440427
aa(lp92
F0.29242727029091375
aF-0.16657272297187933
aF0.05433891838628557
aF0.26378537016794723
aF0.6675112486988118
aF0.6419658259163502
aF0.2696773807746038
aa(lp93
F0.29267380203460747
aF-0.16494978583078054
aF0.054284018390210256
aF0.26557697309421924
aF0.6663295568810658
aF0.6425468168702875
aF0.26945756830836326
aa(lp94
F0.29277233927740587
aF-0.16424104023791086
aF0.054266433336181946
aF0.26631857310523366
aF0.6658219929619192
aF0.642813106408747
aF0.2693451346071566
aa(lp95
F0.2929331573987253
aF-0.16303141138704125
aF0.05423071311398972
aF0.2676020006612442
aF0.6649643736877625
aF0.643254976899376
aF0.2691367415688992
aa(lp96
F0.29300244700613787
aF-0.1625148416620651
aF0.05421970641736808
aF0.26814482404137835
aF0.6645944440654279
aF0.6434473524898278
aF0.2690503351252595
aa(lp97
F0.2930673101620609
aF-0.16204863835228345
aF0.05421636950732983
aF0.26862999827907397
aF0.6642514080400327
aF0.643630210687899
aF0.2689761008552053
aa(lp98
F0.29311856767466304
aF-0.16160906022703314
aF0.054216216086948904
aF0.2690397298549988
aF0.6639421735595837
aF0.6438149820779226
aF0.2688878628360326
aa(lp99
F0.2931746286815029
aF-0.16125360598683558
aF0.054206753807458125
aF0.2694651737107474
aF0.6636734072255809
aF0.6439324251851665
aF0.26884411932154084
aa(lp100
F0.29321610621987315
aF-0.1608977510762588
aF0.054207911514932344
aF0.269796434264335
aF0.6634221149450248
aF0.6440822190196615
aF0.2687732810433908
aa(lp101
F0.2932603907885586
aF-0.16060962827182457
aF0.054200114244801686
aF0.2701420338779037
aF0.6632054498541768
aF0.6441762458594377
aF0.2687355151193639
aa(lp102
F0.29356677728196356
aF-0.15901023214744348
aF0.05416446259971716
aF0.2715023954433061
aF0.6623093518880805
aF0.644674269609437
aF0.26838006217615407
aa(lp103
F0.2936885898567422
aF-0.15831447994154374
aF0.054147958135023905
aF0.2720691870018617
aF0.6619310432286087
aF0.6448963907635626
aF0.26820569843790043
aa(lp104
F0.29389313274348683
aF-0.1571253777246649
aF0.05412157363090049
aF0.2730449473113388
aF0.6612861296061141
aF0.6452724570067144
aF0.2679002944508119
aa(lp105
F0.2939842004400717
aF-0.15661804037553761
aF0.05411972283628494
aF0.273453311367088
aF0.661001040578213
aF0.645441649845344
aF0.26777973691415546
aa(lp106
F0.2940640081558688
aF-0.1561552104786752
aF0.054123162927696936
aF0.2738357770507117
aF0.6607287215783606
aF0.6456116166845322
aF0.26765119855969804
aa(lp107
F0.2941302671111119
aF-0.1557215127700688
aF0.05412963233662155
aF0.274155577136307
aF0.6604825808945665
aF0.6457826527261773
aF0.26751868214734537
aa(lp108
F0.2941966359271345
aF-0.15536585936638217
aF0.05412437472191342
aF0.2744956186600777
aF0.6602724840003122
aF0.6458914407992248
aF0.2674259690284026
aa(lp109
F0.29424992306723247
aF-0.15501486831174638
aF0.05413068659709552
aF0.2747529468055428
aF0.6600739515152634
aF0.646029027726355
aF0.26731945699413034
aa(lp110
F0.2943022102927597
aF-0.15472761787356365
aF0.054125293452920484
aF0.27503211683435275
aF0.6599067888981098
aF0.6461132800197202
aF0.26724145273134353
aa(lp111
F0.29465277395811607
aF-0.1531770393280552
aF0.0541032659840051
aF0.2759564990659725
aF0.6592927780040879
aF0.6465032643417816
aF0.26686058661841566
aa(lp112
F0.2947972909808223
aF-0.15250265096317517
aF0.05410037703858936
aF0.27633937246295326
aF0.6590243246101493
aF0.6466876185061484
aF0.26668073584300045
aa(lp113
F0.2949298567935491
aF-0.15189536974666756
aF0.05410519790480642
aF0.2766852121230275
aF0.6587713273956901
aF0.6468631096669202
aF0.26652157313395414
aa(lp114
F0.2950427384872829
aF-0.15132729725736993
aF0.05411494947084183
aF0.27696065025731575
aF0.658543565663069
aF0.6470432516938734
aF0.26636103463200966
aa(lp115
F0.2951536106042653
aF-0.1508592174562976
aF0.054110776921754866
aF0.2772711691784141
aF0.6583504777317419
aF0.6471512979676449
aF0.2662527835565573
aa(lp116
F0.29524545811625813
aF-0.15039976886994766
aF0.05412115703217549
aF0.2774891642164722
aF0.6581660264536373
aF0.6472969456263639
aF0.2661276189114049
aa(lp117
F0.29533396441125176
aF-0.15002035117702414
aF0.05411819732958706
aF0.2777419579577116
aF0.6580104482072174
aF0.6473837342803707
aF0.2660375075607878
aa(lp118
F0.2954748612476069
aF-0.14934596379777101
aF0.05411405463614882
aF0.2781215991480096
aF0.6577584434763821
aF0.6475478354539361
aF0.26586464022468814
aa(lp119
F0.29553563097367574
aF-0.14905686564213272
aF0.05411594301059895
aF0.2782847146486477
aF0.657644388028129
aF0.6476245753856203
aF0.2657891755595466
aa(lp120
F0.2957486708324357
aF-0.14827404918945644
aF0.054114838680500404
aF0.2785996830692339
aF0.6574177466036661
aF0.6477892361657204
aF0.2656185771969135
aa(lp121
F0.29592561344827006
aF-0.1475226457084695
aF0.05412538061428376
aF0.27881222367095654
aF0.6572126567557511
aF0.6479864374268902
aF0.2654220123548738
aa(lp122
F0.2960977472819
aF-0.1469013104915652
aF0.05411966640979736
aF0.27907846773810285
aF0.6570421127979071
aF0.64809630719182
aF0.265296150479687
aa(lp123
F0.29637531990387916
aF-0.14579490512448876
aF0.05411681484371195
aF0.27945437509211746
aF0.6567633157744753
aF0.6483197011479133
aF0.265044834694569
aa(lp124
F0.2964942153788522
aF-0.14532198429687576
aF0.054119923988755814
aF0.27961452757324146
aF0.6566384807403274
aF0.6484209519242073
aF0.26493752223256783
aa(lp125
F0.2966949940400786
aF-0.14451680232178532
aF0.05412114518123948
aF0.27988735890006733
aF0.6564367941310676
aF0.6485812433536923
aF0.2647568174922984
aa(lp126
F0.29678127860605963
aF-0.14417210398703623
aF0.05412550028517779
aF0.28000503854352726
aF0.6563441922543105
aF0.6486562032974135
aF0.26467831344494175
aa(lp127
F0.29686063303319365
aF-0.1438591176529773
aF0.05413595507234678
aF0.28011424698469284
aF0.6562479398728323
aF0.648736594435448
aF0.2646043859975855
aa(lp128
F0.2969298906069563
aF-0.14356786383563783
aF0.05414871559113989
aF0.2801954644627832
aF0.6561599783866583
aF0.6488201563314866
aF0.26453164120023653
aa(lp129
F0.29715610810730997
aF-0.1428159068025058
aF0.05414202955939898
aF0.28038786607460814
aF0.6560306963917993
aF0.6489246608666293
aF0.2643920469094117
aa(lp130
F0.29752521003958016
aF-0.1414817501521382
aF0.0541420224579332
aF0.28062577069804423
aF0.6558218011417294
aF0.6491446399208523
aF0.26411773592353416
aa(lp131
F0.2976829146544226
aF-0.14091189171118615
aF0.054146898136342075
aF0.2807282850756779
aF0.6557263131540043
aF0.6492445166500748
aF0.26400035946137734
aa(lp132
F0.29782713225769375
aF-0.14039770380931135
aF0.054158406804436496
aF0.28082137347919567
aF0.6556285972229184
aF0.6493453329796872
aF0.26389607279810984
aa(lp133
F0.2979531427481025
aF-0.139919616148787
aF0.054174179845001114
aF0.28087654139856977
aF0.6555397617520825
aF0.6494531270006393
aF0.26379276920168215
aa(lp134
F0.29807099418774874
aF-0.1395207138820035
aF0.05417480639515246
aF0.2809783030207497
aF0.6554722067751844
aF0.6495069612775476
aF0.26371971224930496
aa(lp135
F0.2981727925365788
aF-0.1391333730282302
aF0.05418936907260469
aF0.2810248920369209
aF0.6553981385422526
aF0.6495959111235367
aF0.2636350551473945
aa(lp136
F0.2982675370183436
aF-0.13881034201123243
aF0.0541902022105271
aF0.2811068558230015
aF0.6553446918571758
aF0.6496384185090369
aF0.26357578731933423
aa(lp137
F0.2984223181065001
aF-0.13824060315672332
aF0.05419225858531895
aF0.2812073365409151
aF0.6552656719178946
aF0.6497200009145818
aF0.2634639510314657
aa(lp138
F0.29865151545984353
aF-0.13746433218926485
aF0.0542009555732542
aF0.2812513649128325
aF0.6551782293564602
aF0.6498508149269873
aF0.263311746511113
aa(lp139
F0.2988639703173179
aF-0.13680042789532534
aF0.05419650259995634
aF0.28133815227347836
aF0.6551140197551456
aF0.6499210448716367
aF0.26320543426867143
aa(lp140
F0.29904562559424963
aF-0.13615773605141135
aF0.054211453249680325
aF0.28134526138839655
aF0.6550423049614886
aF0.6500426629318692
aF0.2630759566617207
aa(lp141
F0.29921659647352905
aF-0.13562021367326307
aF0.054209694862284705
aF0.2814137847638183
aF0.6549915513315918
aF0.6500983788784146
aF0.2629913443609795
aa(lp142
F0.2994977093172003
aF-0.1346698258266224
aF0.05421323363791439
aF0.2814673562550759
aF0.6549157132052437
aF0.6502182658737871
aF0.26282644974151753
aa(lp143
F0.29961823239387897
aF-0.13426355905609344
aF0.054218661333279725
aF0.2814916148167557
aF0.6548769609567621
aF0.650275521505625
aF0.2627553670745438
aa(lp144
F0.29982182444982974
aF-0.1335722227536889
aF0.05422317649292832
aF0.2815336127191902
aF0.6548221138074894
aF0.6503608968517778
aF0.2626357325729376
aa(lp145
F0.2999094640577429
aF-0.1332762862829995
aF0.0542286101203205
aF0.2815530194087627
aF0.6547921608694852
aF0.6504036714551792
aF0.26258367710751296
aa(lp146
F0.2999899231797206
aF-0.1330066301069644
aF0.054239885273984045
aF0.2815723743079777
aF0.6547526313343031
aF0.650455368680552
aF0.2625334324272275
aa(lp147
F0.30043978210644473
aF-0.13158853015091954
aF0.05423695346009967
aF0.28156863339554233
aF0.6547004791805779
aF0.6505979731263067
aF0.26231405721468637
aa(lp148
F0.3006288826290961
aF-0.13097497896896199
aF0.054241710112107086
aF0.2815563763093849
aF0.6546724321293169
aF0.6506725638961486
aF0.2622121815671906
aa(lp149
F0.3009512810959732
aF-0.12993027856389763
aF0.05424893594735854
aF0.28152929962157247
aF0.6546352736922184
aF0.6507875332338409
aF0.26204865670312805
aa(lp150
F0.3010896240446005
aF-0.12948435517749074
aF0.05425613939935439
aF0.2815191217115197
aF0.6546129800662399
aF0.6508422109671076
aF0.2619794779424873
aa(lp151
F0.3012180508550958
aF-0.1290750813454547
aF0.05428049800001286
aF0.2815310717045255
aF0.6545546983296774
aF0.6509264860794872
aF0.2619028680248795
aa(lp152
F0.3013339269655675
aF-0.12869435024202758
aF0.05431386552525719
aF0.281529162359335
aF0.6544866043020654
aF0.6510262888240226
aF0.2618270169222864
aa(lp153
F0.3014384452333767
aF-0.12837708743662057
aF0.05432499302172425
aF0.28155140003893925
aF0.6544554705305852
aF0.651067523803496
aF0.26177839039364525
aa(lp154
F0.30153290547062206
aF-0.128068744088486
aF0.054354287217680944
aF0.2815473076970961
aF0.6543990355815128
aF0.6511495243436723
aF0.26171991270346984
aa(lp155
F0.30161701299748533
aF-0.1278124186618384
aF0.05436302305754556
aF0.2815628445787671
aF0.6543771961916803
aF0.6511798897772529
aF0.261682251608153
aa(lp156
F0.30207154189522545
aF-0.1264022597153797
aF0.05436008231809618
aF0.2814972375767703
aF0.6543673448778912
aF0.6513024840748314
aF0.26147228807669204
aa(lp157
F0.3022648616513277
aF-0.1257981773977789
aF0.05436007758459249
aF0.281444759563562
aF0.6543700178851621
aF0.6513541715700915
aF0.2613933246764756
aa(lp158
F0.30244326919157366
aF-0.1252461345575402
aF0.05438133377470157
aF0.2814164624241801
aF0.6543319019759765
aF0.6514385575883211
aF0.2613089022984269
aa(lp159
F0.30259997375419695
aF-0.12473786212420113
aF0.05440218656646824
aF0.2813592858321857
aF0.6543053440129025
aF0.651521676182871
aF0.2612297351681502
aa(lp160
F0.3027428445678405
aF-0.12431396992838298
aF0.0543974945534612
aF0.28133580649368756
aF0.6543184461417642
aF0.6515349946797458
aF0.2611889847042512
aa(lp161
F0.30286654807832536
aF-0.1239061259194344
aF0.054404693299030124
aF0.28127162913832504
aF0.6543193858331283
aF0.6515835417730171
aF0.2611346397078741
aa(lp162
F0.3029811008242871
aF-0.12356256360063207
aF0.054401106044048894
aF0.2812568331484398
aF0.6543293782903533
aF0.6515945775367974
aF0.26109799891633195
aa(lp163
F0.303170589130914
aF-0.1229585378949464
aF0.05439800513776685
aF0.2811971024243955
aF0.65435444993015
aF0.6516247158386893
aF0.2610242769415946
aa(lp164
F0.30325178321684365
aF-0.122699232088403
aF0.054399375258084914
aF0.28117210959350986
aF0.6543593826245786
aF0.6516438846693662
aF0.26099097825582684
aa(lp165
F0.3035021853052641
aF-0.1219688926870444
aF0.0543983982934087
aF0.28110770346239716
aF0.6543656410790244
aF0.6516997651473766
aF0.26090512247977926
aa(lp166
F0.3037227614054602
aF-0.12127208016143842
aF0.05442691967941596
aF0.2810222980958258
aF0.6543296867072259
aF0.6518193553925229
aF0.26078852927657753
aa(lp167
F0.30392703777432817
aF-0.1206869782220437
aF0.0544311482287112
aF0.2809911697838087
aF0.6543274129121052
aF0.6518615760418263
aF0.26072223705611425
aa(lp168
F0.30425981751138437
aF-0.11966346617291626
aF0.0544264017794778
aF0.28086367295999487
aF0.6543681477933813
aF0.6519262484028359
aF0.2605956465643361
aa(lp169
F0.3044048636066312
aF-0.11922529012872796
aF0.05443380572634282
aF0.2808111666442493
aF0.6543705421919263
aF0.6519668814189916
aF0.2605445599741714
aa(lp170
F0.30464991009369335
aF-0.1184811479084632
aF0.05443908272897725
aF0.2807108387912956
aF0.6543961840401056
aF0.6520158870603324
aF0.2604656259850105
aa(lp171
F0.3047546793676136
aF-0.11816419971958987
aF0.05444172276914064
aF0.28066393757685354
aF0.65440768688581
aF0.6520368481212164
aF0.2604347944894644
aa(lp172
F0.3048501410099207
aF-0.11787627211552387
aF0.0544486331534068
aF0.28062400117402114
aF0.6544074417122424
aF0.6520666201246214
aF0.2604039038032526
aa(lp173
F0.30493457227476584
aF-0.11761005469289826
aF0.054458217569058595
aF0.28057795429870686
aF0.6544041819463452
aF0.6521031405009955
aF0.26037026013242465
aa(lp174
F0.30518836247927916
aF-0.11688997381086211
aF0.05445606505648157
aF0.2805107758360963
aF0.6544228321451452
aF0.652142305471256
aF0.260297665801278
aa(lp175
F0.3056104968644066
aF-0.11562504295382432
aF0.054465076952295244
aF0.2803230512407364
aF0.6544642620569259
aF0.6522382422635644
aF0.26015532276373476
aa(lp176
F0.3057872207830483
aF-0.11508667769605124
aF0.05446344415882326
aF0.28024673363358604
aF0.6544877886434846
aF0.6522734549899681
aF0.2600900665533333
aa(lp177
F0.3060946311249361
aF-0.11416730784052266
aF0.054474751171167915
aF0.2801051512324896
aF0.6545187589045132
aF0.6523403582893802
aF0.2599968373692324
aa(lp178
F0.30622682835108683
aF-0.11377433337449736
aF0.054483639350756785
aF0.2800464129750519
aF0.6545244213852698
aF0.6523755179840673
aF0.2599576348659611
aa(lp179
F0.30634643884771545
aF-0.11342088339577382
aF0.054491731762059084
aF0.27998561663566646
aF0.6545308592885728
aF0.6524073835657651
aF0.2599269408602749
aa(lp180
F0.3064521467253214
aF-0.11309438775732676
aF0.05450301311428807
aF0.2799195862031656
aF0.6545330985948208
aF0.6524474508194485
aF0.25989184678037597
aa(lp181
F0.30654854327257086
aF-0.11281809041214885
aF0.05450253883449152
aF0.2798866834809613
aF0.6545480612461042
aF0.6524548142466885
aF0.2598711128527252
aa(lp182
F0.30663390858485884
aF-0.11255314537108839
aF0.05451251822986873
aF0.2798352004763119
aF0.6545477558543504
aF0.6524892280092145
aF0.2598409190492432
aa(lp183
F0.30688908628829026
aF-0.11183681984199106
aF0.05450613985454203
aF0.2797426139414983
aF0.6545850755340447
aF0.652514288440807
aF0.25978366425519145
aa(lp184
F0.3073162977318191
aF-0.11057549662553241
aF0.054517687091100164
aF0.27953103675940794
aF0.6546353822342481
aF0.6526040453146821
aF0.25965915322619176
aa(lp185
F0.3074954453497647
aF-0.1100396294218845
aF0.05451592839598628
aF0.2794410591301628
aF0.6546654989728123
aF0.6526339587804877
aF0.2596048820292098
aa(lp186
F0.3078065049862689
aF-0.10912276965450761
aF0.054529162774269335
aF0.27928394619002817
aF0.6547018335213014
aF0.652697148127848
aF0.25952344674450034
aa(lp187
F0.30794018836217835
aF-0.10873096599730525
aF0.05453859742335103
aF0.27921819517965235
aF0.6547103492240467
aF0.6527302207406689
aF0.25948953164122457
aa(lp188
F0.30816557777803244
aF-0.10806708508676034
aF0.05454494840163597
aF0.2790923915274688
aF0.6547509734791332
aF0.6527624280069569
aF0.2594413465546073
aa(lp189
F0.3082621681339885
aF-0.10778308083844666
aF0.05454982778388223
aF0.2790403042975413
aF0.6547631814780203
aF0.6527810596230191
aF0.25941968498123863
aa(lp190
F0.3083500581333615
aF-0.10752494108774276
aF0.054558013797305696
aF0.2789954047630996
aF0.6547646827597953
aF0.6528076990405518
aF0.259397151882821
aa(lp191
F0.3084295780784808
aF-0.10728451676510264
aF0.05457399730565571
aF0.27895599002623905
aF0.6547502389816647
aF0.6528505287327645
aF0.2593682079887268
aa(lp192
F0.3086820491298581
aF-0.1065906884529811
aF0.05457235169266962
aF0.27886101533956215
aF0.6547800685362424
aF0.6528802790537654
aF0.25932014421201394
aa(lp193
F0.3091007389585687
aF-0.10537323147978855
aF0.05457889453502052
aF0.27864591600639554
aF0.6548370971402461
aF0.6529582842932478
aF0.2592109347128533
aa(lp194
F0.30928133206388025
aF-0.10485916694471709
aF0.054579640666189824
aF0.27854162358780415
aF0.654869285569644
aF0.6529818426331206
aF0.25918236039134446
aa(lp195
F0.30958832193331587
aF-0.10397558554381749
aF0.054590136156742075
aF0.2783707278604028
aF0.65491362182663
aF0.6530342768366949
aF0.25912182288022445
aa(lp196
F0.30972007681396596
aF-0.10359756848910205
aF0.05459876537338883
aF0.27830197650380406
aF0.6549240564419802
aF0.6530639473156655
aF0.2590945211387914
aa(lp197
F0.3098391983330294
aF-0.10325718732258413
aF0.05460694994037457
aF0.2782353469919113
aF0.6549327534746572
aF0.6530923630849101
aF0.2590724713097913
aa(lp198
F0.30994491676743413
aF-0.10294352656839116
aF0.05461823427644587
aF0.27816465261937123
aF0.6549372842295785
aF0.6531280368516768
aF0.25904699812467163
aa(lp199
F0.3100412121740572
aF-0.10267694399116893
aF0.05461842484934436
aF0.27812326738267923
aF0.6549539060262257
aF0.6531339406809739
aF0.25903452405406263
aa(lp200
F0.3101267134822723
aF-0.1024224845029737
aF0.05462821226306466
aF0.2780671299406129
aF0.6549557392865946
aF0.6531645583471165
aF0.25901295438907507
aa(lp201
F0.3103843272457032
aF-0.10171494201958882
aF0.054623068805053826
aF0.2779575680398625
aF0.6549968725958952
aF0.653185053922905
aF0.258974849340035
aa(lp202
F0.31081650710656783
aF-0.10047302312765523
aF0.05463484784541896
aF0.27771890946296085
aF0.6550577430867904
aF0.6532598407145846
aF0.25888827910567924
aa(lp203
F0.311001393757819
aF-0.09994256242024313
aF0.05464442861952801
aF0.2776204183009149
aF0.655075786010858
aF0.6532983371961485
aF0.2588511165543409
aa(lp204
F0.31116940753100886
aF-0.09946376125728983
aF0.054658051738418534
aF0.27753470031737926
aF0.6550815208583057
aF0.6533422500459749
aF0.2588176876772039
aa(lp205
F0.31131581471038466
aF-0.09902529765985474
aF0.05466685058795302
aF0.2774389156580939
aF0.6550961307416056
aF0.6533828369100825
aF0.2587809421058107
aa(lp206
F0.3114522199232349
aF-0.09864977569361666
aF0.054669873337157435
aF0.2773814117087612
aF0.6551138567658008
aF0.6533959621274295
aF0.25876457212582893
aa(lp207
F0.31157337627525733
aF-0.09829288952545834
aF0.05468563582719124
aF0.27730443245099806
aF0.6551136318186315
aF0.6534395454224322
aF0.25873759221759335
aa(lp208
F0.31168331764579416
aF-0.09798898796597202
aF0.05468811224964072
aF0.27725766950880903
aF0.6551290879365423
aF0.6534490503663553
aF0.2587245666984229
aa(lp209
F0.31186726865503933
aF-0.09745954666214142
aF0.054694194696935886
aF0.27714864227043173
aF0.6551654599287057
aF0.6534685591957424
aF0.25870000453557107
aa(lp210
F0.31212504244151446
aF-0.09672190085989273
aF0.05470551763466344
aF0.27699987295303685
aF0.6551896517645154
aF0.6535265489690041
aF0.2586515810842039
aa(lp211
F0.3123600128250399
aF-0.0960808438547153
aF0.05470526891228897
aF0.27690014640308985
aF0.6552225821623268
aF0.6535463273372923
aF0.25862496934831547
aa(lp212
F0.3125636350716904
aF-0.09547440360372102
aF0.054717105269017935
aF0.27677086471202356
aF0.6552420583900362
aF0.653601860697302
aF0.2585736665949796
aa(lp213
F0.3127539136539589
aF-0.09495608982511317
aF0.05471798080070843
aF0.2766825983963953
aF0.6552714130478776
aF0.6536154681061509
aF0.2585593449079617
aa(lp214
F0.31307215435869207
aF-0.09404849880921096
aF0.05473057631157843
aF0.2764989939811034
aF0.6553200839318116
aF0.6536611748182216
aF0.2585168514010323
aa(lp215
F0.31320850695269925
aF-0.09366089843369174
aF0.05473870152494267
aF0.2764214950657765
aF0.6553356809658382
aF0.6536851956128279
aF0.25849945329779916
aa(lp216
F0.31343966891607533
aF-0.09300270304526907
aF0.05474650298698297
aF0.27628102977566904
aF0.6553795513889836
aF0.6537094395095193
aF0.25847708777263134
aa(lp217
F0.3135387763168088
aF-0.09271999352695892
aF0.054753548406234503
aF0.2762258694378777
aF0.655389314371141
aF0.6537281905012998
aF0.2584638632484447
aa(lp218
F0.31370682917139786
aF-0.09223894392828141
aF0.05476238535839581
aF0.2761286476257459
aF0.6554154520889667
aF0.6537508273775177
aF0.2584442122133964
aa(lp219
F0.31395984824117507
aF-0.0915222029313468
aF0.05477737332476526
aF0.27598590662633493
aF0.6554320150846691
aF0.6538108359139088
aF0.2584028710894014
aa(lp220
F0.3141901857498572
aF-0.09089992995357596
aF0.054778348690642104
aF0.27588380137437285
aF0.6554637449921195
aF0.653828832924436
aF0.258385882696407
aa(lp221
F0.3145767415948018
aF-0.08980959284160721
aF0.05479370151843055
aF0.2756493349134107
aF0.6555182512066868
aF0.6538881435861367
aF0.2583477543432438
aa(lp222
F0.3147441140400389
aF-0.08934054822652635
aF0.05481084396020433
aF0.2755435372526538
aF0.6555263324118495
aF0.6539299076307642
aF0.2583344005334652
aa(lp223
F0.3150271589681657
aF-0.08854177007178266
aF0.054835632570434625
aF0.27537027311418244
aF0.6555497799679176
aF0.653989552134031
aF0.2583086610405564
aa(lp224
F0.31514317603656566
aF-0.08820371513690932
aF0.05483597685854037
aF0.27531788631512677
aF0.6555664370022095
aF0.6540049343756118
aF0.25828328239270654
aa(lp225
F0.3152501877125116
aF-0.08790209833426119
aF0.05483570459201513
aF0.2752550617578616
aF0.6555864912517574
aF0.6540143626452343
aF0.25827546712499305
aa(lp226
F0.3153513999479036
aF-0.08761287754793842
aF0.05486444155958098
aF0.27517745095713575
aF0.6555660029884081
aF0.654071872964558
aF0.25826453726203097
aa(lp227
F0.3154410225355622
aF-0.08736665920223241
aF0.05487708232291934
aF0.2751322015118358
aF0.6555652879528879
aF0.6540944105890772
aF0.2582574819025102
aa(lp228
F0.31593812590482545
aF-0.08599641499402366
aF0.05490044158430937
aF0.27488256020668744
aF0.6556084606303986
aF0.6541728334387044
aF0.25821508173387814
aa(lp229
F0.3161460870626538
aF-0.08540959453148621
aF0.054907966927259674
aF0.2747785242462946
aF0.6556306705876089
aF0.6542048876186457
aF0.2581882092849051
aa(lp230
F0.31649538364589325
aF-0.08441228718088438
aF0.05490666916203246
aF0.27460617671378407
aF0.6556909314005568
aF0.6542357045848184
aF0.25814045214982184
aa(lp231
F0.3166500452584524
aF-0.08398926103826404
aF0.05491287703755737
aF0.27451253235680173
aF0.6557134095308558
aF0.6542509811925381
aF0.25814423826434224
aa(lp232
F0.3167897192831267
aF-0.08359759520859453
aF0.05493174267976739
aF0.27442025089391114
aF0.6557112680996151
aF0.6542944023212959
aF0.2581377420632941
aa(lp233
F0.3169137540289657
aF-0.08323710345035105
aF0.05495420409866479
aF0.2743311963289734
aF0.6557020902836723
aF0.6543468424989703
aF0.25812278711877584
aa(lp234
F0.3170261138924687
aF-0.08293075867388969
aF0.0549604996372986
aF0.27427505686566583
aF0.6557129369479651
aF0.6543602110321365
aF0.258121002086982
aa(lp235
F0.31712611860992945
aF-0.082637103215272
aF0.05498085002636341
aF0.27420511261181113
aF0.6557011585135011
aF0.6544075439377559
aF0.25810523702348753
aa(lp236
F0.317216903045201
aF-0.08238870196030736
aF0.054987008877026664
aF0.2741611022440164
aF0.655708594771271
aF0.654419460440549
aF0.2581028836648902
aa(lp237
F0.31771835825751543
aF-0.08101390134799687
aF0.055000505010077444
aF0.27390909322525653
aF0.6557642430418313
aF0.6544788082585451
aF0.2580785844210367
aa(lp238
F0.3179263521536486
aF-0.08042546227766428
aF0.055000982635437554
aF0.27381661000979984
aF0.6557908488955231
aF0.6545018132532716
aF0.2580507760806194
aa(lp239
F0.31828379051481637
aF-0.07942263897384977
aF0.055005242524622605
aF0.27364249218185743
aF0.6558430361147924
aF0.6545336756544771
aF0.25802202597156876
aa(lp240
F0.3184382127774307
aF-0.07899569844089482
aF0.05501009998062678
aF0.27355605207785705
aF0.6558649658208222
aF0.6545482921911278
aF0.2580208638271458
aa(lp241
F0.3185804292373886
aF-0.078603240620498
aF0.05502863184023951
aF0.2734621959667457
aF0.6558645665496982
aF0.6545870882289205
aF0.2580229479050367
aa(lp242
F0.31870661035137854
aF-0.07824144263809292
aF0.05505161093364089
aF0.2733739831342888
aF0.6558549056733988
aF0.6546373155731056
aF0.2580135521802471
aa(lp243
F0.31882084202626804
aF-0.0779331078530653
aF0.05505904856339636
aF0.27331911129243996
aF0.6558638565518382
aF0.654650584668637
aF0.2580152651768348
aa(lp244
F0.3189225124610209
aF-0.07763741717939074
aF0.05508109776031603
aF0.2732512416877884
aF0.6558492178307647
aF0.6546988251456879
aF0.25800195879045573
aa(lp245
F0.31901475944086727
aF-0.07738728971742151
aF0.05508830502057169
aF0.2732081940735341
aF0.6558551503855617
aF0.6547107419943241
aF0.2580022261939852
aa(lp246
F0.3195205712946876
aF-0.07601081466666647
aF0.055102794940345715
aF0.27296074092732475
aF0.6559067492204176
aF0.6547659387556424
aF0.25799289851651447
aa(lp247
F0.31973084220349735
aF-0.07542225914025624
aF0.05510376249731022
aF0.2728690092277588
aF0.6559326486305638
aF0.6547859108622235
aF0.25797340017893916
aa(lp248
F0.31992201049500996
aF-0.074895190736947
aF0.055104140592529466
aF0.2727749018091362
aF0.655959545440943
aF0.6547999567314543
aF0.25796888252735656
aa(lp249
F0.3200935028075385
aF-0.07440026074329242
aF0.05512494633233589
aF0.27265970874772033
aF0.6559595280769582
aF0.6548534855222106
aF0.2579548279255004
aa(lp250
F0.32025214188688944
aF-0.07397928327890327
aF0.05513051919617623
aF0.27258386797200873
aF0.6559778762220803
aF0.6548624893004263
aF0.25796546461849607
aa(lp251
F0.32039017301622996
aF-0.07358685014606872
aF0.05513872684853181
aF0.2724973195918552
aF0.6559927573476325
aF0.654885526395207
aF0.25796057923794674
aa(lp252
F0.3205163597482203
aF-0.07324964809591845
aF0.055136757565212205
aF0.27245277781592236
aF0.6560127580678704
aF0.654883110677913
aF0.25796289745115225
aa(lp253
F0.32073193426857693
aF-0.07265621001295708
aF0.05515247383972269
aF0.2723463148257329
aF0.6560313547216654
aF0.6549086010006128
aF0.2579633128146706
aa(lp254
F0.3208210667165025
aF-0.07240388559901204
aF0.05515385971861973
aF0.2723185472745311
aF0.6560392971359881
aF0.6549167674763783
aF0.2579516952878956
aa(lp255
F0.3210902653554999
aF-0.07168732870513855
aF0.055151361959610595
aF0.2721945802685342
aF0.6560755048390295
aF0.6549282484381356
aF0.2579612990748902
aa(lp256
F0.32132943883713994
aF-0.0710155669543851
aF0.055172586581540395
aF0.2720480026761468
aF0.6560862727311441
aF0.6549816305415713
aF0.25795300080979605
aa(lp257
F0.3215482062213968
aF-0.07044033123475428
aF0.05517309703345931
aF0.2719529113934556
aF0.6561164630820187
aF0.6549849081743444
aF0.2579681587351639
aa(lp258
F0.3219167292497662
aF-0.069437471910061
aF0.05518629224004938
aF0.27175347689030155
aF0.6561669866222248
aF0.6550107138100356
aF0.25798429847416887
aa(lp259
F0.32207408100844864
aF-0.06900970453587445
aF0.055193846810481034
aF0.27166902066966264
aF0.6561853364688447
aF0.6550243345378448
aF0.2579919932379862
aa(lp260
F0.3223418694543186
aF-0.0682796645058035
aF0.055205979086051696
aF0.27152436701351046
aF0.6562216153726782
aF0.6550422212980256
aF0.25800658509529145
aa(lp261
F0.3224562489803016
aF-0.06796732230426661
aF0.05521340253939706
aF0.2714653309292709
aF0.6562319438151702
aF0.6550546417886082
aF0.2580109034347639
aa(lp262
F0.3225595845320422
aF-0.06768444439407062
aF0.055222440641743545
aF0.2714138641741837
aF0.6562349260790736
aF0.6550724023170758
aF0.2580123715068056
aa(lp263
F0.3226519518303152
aF-0.06742509372901595
aF0.055234141756513214
aF0.27136085809002575
aF0.6562341946184129
aF0.6550957205293108
aF0.25801078166299796
aa(lp264
F0.32292310725425766
aF-0.06670951842500647
aF0.05523486295192018
aF0.2712496299582702
aF0.6562612696593971
aF0.6551089601705079
aF0.25802525941630905
aa(lp265
F0.32337923427561643
aF-0.06546367602854995
aF0.05525014630581265
aF0.27101989092038137
aF0.6563059585411439
aF0.6551547407096661
aF0.2580367672145681
aa(lp266
F0.3235745666018255
aF-0.06493220773731702
aF0.055260710878445196
aF0.2709190452462265
aF0.6563213512647443
aF0.65517749721175
aF0.25804573614814985
aa(lp267
F0.3239076432598703
aF-0.06402420902329792
aF0.055280531192544446
aF0.2707466296840971
aF0.6563490512879628
aF0.655214037091322
aF0.2580634630988769
aa(lp268
F0.3240498354301524
aF-0.0636369656860125
aF0.05529058576829188
aF0.27067480335325705
aF0.6563576465057674
aF0.6552321301286552
aF0.25807101028622115
aa(lp269
F0.32417784851337816
aF-0.06328472758614015
aF0.055302625304741365
aF0.270603019389903
aF0.6563589029510813
aF0.6552581481615456
aF0.25807703439442786
aa(lp270
F0.3242935743783317
aF-0.06295817627200574
aF0.05532518745249307
aF0.2705266437010171
aF0.6563456169512977
aF0.6553025686961409
aF0.2580781075893945
aa(lp271
F0.3243981752336621
aF-0.06267823180330075
aF0.05533401854245891
aF0.27047713202201223
aF0.6563486847506232
aF0.6553164150286632
aF0.25808704204832705
aa(lp272
F0.32449131348264504
aF-0.06241193994721353
aF0.0553544492952075
aF0.2704186139191603
aF0.6563333767629962
aF0.6553574085633124
aF0.2580832013791344
aa(lp273
F0.3247636133636582
aF-0.061691561712417575
aF0.05536116824741932
aF0.2703086728399899
aF0.6563482142773607
aF0.6553810220477027
aF0.25810067598150876
aa(lp274
F0.3252187544057659
aF-0.060444494402799254
aF0.0553748578691033
aF0.2701089981286999
aF0.6563813501371774
aF0.6554273201327481
aF0.2581078850899567
aa(lp275
F0.3254125096273338
aF-0.05991406422448714
aF0.055380410776197264
aF0.27002332887217356
aF0.6563967154727866
aF0.6554448466213675
aF0.2581139415429157
aa(lp276
F0.32558899420785387
aF-0.05943798808676724
aF0.055387514080092556
aF0.26993781249680676
aF0.6564105603430297
aF0.6554602290572645
aF0.2581291184248438
aa(lp277
F0.32574750453850926
aF-0.05900035226912481
aF0.05540386699042528
aF0.26984734669306626
aF0.6564138210970295
aF0.6554902436691249
aF0.25813919774048344
aa(lp278
F0.3258914508393344
aF-0.05862223346195855
aF0.05540707979178991
aF0.26978845954693925
aF0.6564288458280252
aF0.6554921313404638
aF0.25815774869430613
aa(lp279
F0.32601933517117
aF-0.058267904015751965
aF0.05542073048657359
aF0.2697179322908569
aF0.6564302255328137
aF0.6555170457113504
aF0.25816467378312513
aa(lp280
F0.32613547313140534
aF-0.0579613086418813
aF0.05542416894310746
aF0.269671780428342
aF0.656441268025401
aF0.655519518022221
aF0.2581785311867097
aa(lp281
F0.3263317571514799
aF-0.057428026281249225
aF0.05543608687597534
aF0.2695753022541949
aF0.6564596369795396
aF0.6555330141644314
aF0.25819831287548334
aa(lp282
F0.326603124826341
aF-0.05669242870538836
aF0.05544740239332242
aF0.26945299303755854
aF0.6564688041626808
aF0.655570084731455
aF0.2582085546791861
aa(lp283
F0.32685193058356393
aF-0.056043552710878186
aF0.05545557313659259
aF0.26934963904107345
aF0.6564804205032833
aF0.6555888848709135
aF0.2582391207350038
aa(lp284
F0.32706989094222844
aF-0.055436528971492996
aF0.05547672318910897
aF0.2692334616103113
aF0.6564773028246632
aF0.6556381947906723
aF0.25824300872823863
aa(lp285
F0.32726941606422677
aF-0.054910841206416414
aF0.05548401613380331
aF0.26916370719915217
aF0.6564827526966959
aF0.6556546593734532
aF0.25826006617450387
aa(lp286
F0.3276068400046641
aF-0.05400424582064438
aF0.055498579905887566
aF0.2690039408741512
aF0.656511600108684
aF0.6556767508109156
aF0.258297110248938
aa(lp287
F0.3278811264674111
aF-0.05326925438498885
aF0.05551621904453696
aF0.26887123507909994
aF0.6565300014875676
aF0.655699026952544
aF0.2583319611415919
aa(lp288
F0.3279982161877224
aF-0.052956032433093436
aF0.05552437694962643
aF0.2688154706752739
aF0.6565362081749367
aF0.6557096607995636
aF0.25834722916073316
aa(lp289
F0.32810379291021724
aF-0.05267281496353368
aF0.05553343635848712
aF0.2687672435834437
aF0.6565367887979243
aF0.6557243281634029
aF0.2583587025554227
aa(lp290
F0.328639881058052
aF-0.05124450276415771
aF0.05554969994245833
aF0.26854545318732487
aF0.656562561398463
aF0.6557674187780403
aF0.2584144636267295
aa(lp291
F0.3288663834686681
aF-0.050627589809331464
aF0.05556446261456864
aF0.2684470408297734
aF0.6565631593934469
aF0.6558012103755894
aF0.2584294419506905
aa(lp292
F0.32925464567394414
aF-0.04957858931578729
aF0.05559043935025393
aF0.2682765343064366
aF0.656572117213034
aF0.6558463940499828
aF0.25846907639126937
aa(lp293
F0.3294201078956626
aF-0.04913063078271321
aF0.055603744093392665
aF0.2682041311609727
aF0.6565730366699745
aF0.6558684136049345
aF0.2584860065487159
aa(lp294
F0.32956950673818053
aF-0.0487272923213084
aF0.05561737499973571
aF0.2681409560191331
aF0.6565697534550337
aF0.6558915702107269
aF0.25850113090593785
aa(lp295
F0.32970248681341385
aF-0.04835763895714815
aF0.05563362141057117
aF0.26807170560920734
aF0.6565633646440971
aF0.6559222447375086
aF0.25851134930114905
aa(lp296
F0.3298241744896829
aF-0.04803596477373974
aF0.05564233988516319
aF0.2680223582865341
aF0.6565646838088254
aF0.6559336561704985
aF0.2585302112642626
aa(lp297
F0.3299324378109433
aF-0.04773314060093632
aF0.055661799642629975
aF0.2679647628972927
aF0.6565503548074278
aF0.6559690664592043
aF0.25853646028418986
aa(lp298
F0.33003057627499877
aF-0.04747228957497446
aF0.05566953751573324
aF0.267926300666173
aF0.656550647930501
aF0.6559789926772532
aF0.25855039214728526
aa(lp299
F0.3303104697155992
aF-0.04673416505124668
aF0.05568334567828573
aF0.26782522620317206
aF0.6565452075505321
aF0.6560139585152936
aF0.2585802097700884
aa(lp300
F0.3305549434663497
aF-0.04605740902179692
aF0.055696949789653366
aF0.26772498272201173
aF0.6565448085260225
aF0.6560523123181355
aF0.2585877250104008
aa(lp301
F0.3307818542755931
aF-0.04547074058037945
aF0.055700374685887385
aF0.26764801110640335
aF0.6565575584184721
aF0.6560556973311007
aF0.25862644225555276
aa(lp302
F0.3309826109200038
aF-0.044919079470793405
aF0.05572253363507769
aF0.2675543884082077
aF0.6565477597224277
aF0.6560972117323837
aF0.2586428758036125
aa(lp303
F0.33116585104946167
aF-0.044444950502806724
aF0.05572601183776496
aF0.26749202741001443
aF0.6565593932260532
aF0.6560977942422482
aF0.2586763669707256
aa(lp304
F0.331474908437555
aF-0.0436154842403428
aF0.055746729001790105
aF0.26736285831668655
aF0.6565673148411408
aF0.6561256770971597
aF0.25871907337654737
aa(lp305
F0.3316072814220125
aF-0.043262489500671464
aF0.05575688286553704
aF0.26730833707233215
aF0.6565691918720558
aF0.6561378676554647
aF0.25873972993075517
aa(lp306
F0.331832727513356
aF-0.042660472555522216
aF0.05577293416390164
aF0.26721525316860173
aF0.6565767907428242
aF0.6561537848669885
aF0.25877622946596057
aa(lp307
F0.33192849323405127
aF-0.0424039607892617
aF0.05577871279486994
aF0.2671755395564464
aF0.6565801786868658
aF0.6561604405115771
aF0.25879176247689656
aa(lp308
F0.33220566677438385
aF-0.04167265574160474
aF0.05579140326696164
aF0.26707585401938727
aF0.6565755387960475
aF0.6561905090120743
aF0.25883018745302816
aa(lp309
F0.3324486687676404
aF-0.04099600704710214
aF0.05581351384360818
aF0.2669704529045747
aF0.6565632745771992
aF0.6562408363925979
aF0.2588424393393309
aa(lp310
F0.33267216968103624
aF-0.040414915039255817
aF0.05581378420064456
aF0.26690070484828954
aF0.6565771244067858
aF0.656239427843191
aF0.25888280514789624
aa(lp311
F0.3330505426555281
aF-0.03939786885059658
aF0.055837092532582316
aF0.266747572445436
aF0.65658271272136
aF0.656273910355084
aF0.25893904405704027
aa(lp312
F0.33321228037334544
aF-0.038964246674483005
aF0.055849255819354224
aF0.26668360725575735
aF0.6565822360104054
aF0.6562903308102263
aF0.2589645200826499
aa(lp313
F0.3334881968402451
aF-0.0382250171451243
aF0.055869087880530646
aF0.26657265709574096
aF0.6565866844021473
aF0.6563122661757896
aF0.25901187930655045
aa(lp314
F0.33360590777219634
aF-0.037909937227309065
aF0.05587822693989236
aF0.26652642997727644
aF0.6565869964652021
aF0.6563227043952844
aF0.25903221014312644
aa(lp315
F0.33371193692804146
aF-0.03762554808142102
aF0.05588757050759906
aF0.2664867591759417
aF0.6565835990065525
aF0.6563356933132349
aF0.2590487258848063
aa(lp316
F0.333806690842075
aF-0.037365570173045176
aF0.05589921328099412
aF0.2664458980812307
aF0.6565776740991003
aF0.6563534142720658
aF0.25906087478371587
aa(lp317
F0.3340822596627019
aF-0.03664446742117594
aF0.05590215849036925
aF0.2663650978515345
aF0.6565832263296906
aF0.6563623693369335
aF0.25910720111074453
aa(lp318
F0.3345472990618554
aF-0.035387504680815016
aF0.05592827839707995
aF0.2661953630076001
aF0.6565784222559984
aF0.6564112060154215
aF0.25917008461328206
aa(lp319
F0.3347448074031687
aF-0.03485003111837717
aF0.05594220707293486
aF0.2661240735557677
aF0.6565724020333689
aF0.6564364233885106
aF0.2591946766643105
aa(lp320
F0.33508470328685286
aF-0.03393567323443776
aF0.055967418970371566
aF0.265994852100374
aF0.6565680139887256
aF0.6564699434507404
aF0.2592535342262138
aa(lp321
F0.3352291821376189
aF-0.033544695752583675
aF0.05598032948847216
aF0.2659429309250767
aF0.6565626123786465
aF0.6564875846142528
aF0.25927580829080676
aa(lp322
F0.3353590841087867
aF-0.03319182547529308
aF0.055992927182279856
aF0.2658981108146367
aF0.6565540909148098
aF0.6565071374988838
aF0.25929384640067454
aa(lp323
F0.3354757595569783
aF-0.03287072995678911
aF0.05600816575105608
aF0.2658517020690422
aF0.6565438324873141
aF0.6565300500827888
aF0.25930939409931514
aa(lp324
F0.3355815864063284
aF-0.032591837777035615
aF0.05601340316397664
aF0.2658209381920853
aF0.6565445970649767
aF0.6565334040155867
aF0.25933050398125845
aa(lp325
F0.3356758890236705
aF-0.032331652156870894
aF0.05602617533831994
aF0.2657843932922295
aF0.6565354490000094
aF0.6565525832699807
aF0.2593425647481583
aa(lp326
F0.3359526995053341
aF-0.03160815502889372
aF0.05603083502740139
aF0.2657140287560842
aF0.656533955826837
aF0.6565632622542013
aF0.2593914077734587
aa(lp327
F0.33642019704993315
aF-0.030350561541332324
aF0.05605642415509984
aF0.2655629439630413
aF0.6565230959960048
aF0.6566067887220486
aF0.2594634313764128
aa(lp328
F0.3366198229773808
aF-0.029814206149009176
aF0.05607022587473036
aF0.26549691440390183
aF0.656515212109622
aF0.6566281813332049
aF0.25949681344809056
aa(lp329
F0.3367985495038483
aF-0.0293300845196781
aF0.05608382606679786
aF0.265441593095993
aF0.6565043817195095
aF0.656651444929549
aF0.25952193993896017
aa(lp330
F0.33695790541659215
aF-0.02888634214252203
aF0.05610266495346561
aF0.2653807440680974
aF0.6564885677787115
aF0.6566849632647033
aF0.259539361322622
aa(lp331
F0.3371045418638263
aF-0.028503136874679966
aF0.056108996396140476
aF0.2653415627662234
aF0.6564880616955383
aF0.6566884002945496
aF0.2595720031871676
aa(lp332
F0.33723375577803205
aF-0.02814296694795476
aF0.056126259785579447
aF0.2652910149539466
aF0.6564734129320491
aF0.6567173237417799
aF0.25958754245049304
aa(lp333
F0.3373522991514393
aF-0.027832924758139393
aF0.05613170465833554
aF0.26525941863955277
aF0.6564735209299278
aF0.656719226438751
aF0.25961474296842
aa(lp334
F0.3375527904171768
aF-0.02729343736925323
aF0.05614839798977954
aF0.26519206371915544
aF0.6564696303230302
aF0.6567342848291553
aF0.25965529637166584
aa(lp335
F0.33782392220202173
aF-0.02655461690326108
aF0.05616278230646432
aF0.26511623833800374
aF0.656455243809938
aF0.6567651685874992
aF0.2596909824660368
aa(lp336
F0.3380699455942645
aF-0.025903564140188504
aF0.05616660610564976
aF0.2650640659767991
aF0.6564507367865758
aF0.6567731746293292
aF0.2597353810852918
aa(lp337
F0.3382882611985494
aF-0.025299820673818377
aF0.056184842971888596
aF0.2649891479045617
aF0.6564367009069366
aF0.6568052609936541
aF0.25976616085681603
aa(lp338
F0.3384892982757666
aF-0.024773860198403885
aF0.056191943999286106
aF0.26493699389179187
aF0.6564343538780468
aF0.6568095194508468
aF0.25981451744473333
aa(lp339
F0.3388255770919596
aF-0.0238556623950371
aF0.05621554979563401
aF0.2648340905934221
aF0.6564208787758299
aF0.6568416791534667
aF0.25987216644646055
aa(lp340
F0.3389695500156196
aF-0.023464661918618124
aF0.05622695999321506
aF0.26478869399747523
aF0.656413824473816
aF0.6568559793878921
aF0.2599000979475437
aa(lp341
F0.33921409515639855
aF-0.022794903921867143
aF0.05624725662705618
aF0.26471370128725685
aF0.6564022340493081
aF0.6568804972299543
aF0.2599437936262494
aa(lp342
F0.3393182806761471
aF-0.02250493192114837
aF0.056260805450804016
aF0.2646772476666578
aF0.6563911892203868
aF0.656899654181028
aF0.25996039240294866
aa(lp343
F0.3394130325641339
aF-0.02225322590936807
aF0.05626518860802292
aF0.26465432306497877
aF0.6563899900690788
aF0.6569014923843728
aF0.2599821138526959
aa(lp344
F0.33992743507071244
aF-0.02085923822406091
aF0.05628654327728415
aF0.26452986143177953
aF0.6563657025969205
aF0.6569409302269017
aF0.260070434801704
aa(lp345
F0.3401445056523679
aF-0.020261015964333343
aF0.0562992337267868
aF0.2644783448178671
aF0.6563513122794367
aF0.6569638131291412
aF0.2601013422308347
aa(lp346
F0.34051752826362686
aF-0.01924073909450147
aF0.0563240730916721
aF0.26437632027349023
aF0.6563316823795945
aF0.656996794138389
aF0.260171282956631
aa(lp347
F0.3406758186608372
aF-0.01880514900317798
aF0.0563356131791662
aF0.2643334635808504
aF0.6563223414171591
aF0.6570122264414807
aF0.2601994206266764
aa(lp348
F0.3408180886658286
aF-0.018412243967618536
aF0.05634749107478301
aF0.2642985457551352
aF0.6563096518633298
aF0.6570300418525005
aF0.26022191238644216
aa(lp349
F0.3409452058983801
aF-0.0180530415835954
aF0.0563629734713363
aF0.26425915999216987
aF0.6562937078834277
aF0.6570550155341214
aF0.26023906684875425
aa(lp350
F0.34106174284798596
aF-0.017741404229912702
aF0.05636850423140835
aF0.26423461521345465
aF0.6562898222316838
aF0.6570580743040735
aF0.260266064537667
aa(lp351
F0.34116465411907365
aF-0.017449617310689475
aF0.05638260886812527
aF0.2642036033722823
aF0.6562750307368085
aF0.657079925798693
aF0.2602796786322106
aa(lp352
F0.34125886970104025
aF-0.01719729027844602
aF0.0563872984260627
aF0.2641834350663023
aF0.656272194676259
aF0.6570820296460684
aF0.26030198894280165
aa(lp353
F0.3415326583741914
aF-0.016479689315614818
aF0.05639199712217542
aF0.2640227466289719
aF0.6563245859195987
aF0.6570854737870202
aF0.260324234980242
aa(lp354
F0.3419967873852914
aF-0.015239906192581004
aF0.056413298481436475
aF0.26372820810959796
aF0.656410805750427
aF0.6571044240145232
aF0.2603575662083157
aa(lp355
F0.3421949971987401
aF-0.014711595352734544
aF0.05642483422156511
aF0.26360355046358735
aF0.656444527433575
aF0.6571142505477964
aF0.2603739854757177
aa(lp356
F0.3423725512547009
aF-0.014236972608222112
aF0.05643340848568194
aF0.2634939628797586
aF0.6564763018268793
aF0.6571211003778057
aF0.26038751142074046
aa(lp357
F0.34253094039622717
aF-0.013801705137824874
aF0.056448785330664566
aF0.2633857781945314
aF0.6564976848231564
aF0.6571405597335833
aF0.26039394466793897
aa(lp358
F0.3426755258720578
aF-0.013420437264454133
aF0.056454226597745544
aF0.2632835715876795
aF0.6565261964029696
aF0.6571448516216019
aF0.260414589368391
aa(lp359
F0.34292049042790584
aF-0.012762542944299168
aF0.05646850576529942
aF0.2631294248412762
aF0.6565718831950209
aF0.6571520392199277
aF0.2604370659670656
aa(lp360
F0.3430251396352138
aF-0.012482374007271035
aF0.05647526569005898
aF0.26306657172387155
aF0.6565895858345695
aF0.6571557942995646
aF0.2604464563658835
aa(lp361
F0.34311985356234986
aF-0.012228151189122488
aF0.05648532270941742
aF0.26301130686354435
aF0.6565986526385097
aF0.657166231717436
aF0.26045307774247833
aa(lp362
F0.3436301697108187
aF-0.010865658605083359
aF0.056502061339949824
aF0.26260515271550294
aF0.6567541125215984
aF0.6571915064330286
aF0.260407168345116
aa(lp363
F0.34384638134552015
aF-0.010282307925955955
aF0.056512269380662686
aF0.26243116917606735
aF0.6568181928409869
aF0.6572056749443643
aF0.26038518356255397
aa(lp364
F0.3440415324034026
aF-0.009760969456243579
aF0.05651819247075744
aF0.2622701864907147
aF0.6568827254726339
aF0.657209921403613
aF0.2603738724650129
aa(lp365
F0.3442154384821032
aF-0.009284381122887791
aF0.05653003859672186
aF0.26211852474599195
aF0.6569348345835815
aF0.6572249525032391
aF0.26035718523356005
aa(lp366
F0.3443748151442115
aF-0.00886805466557429
aF0.056531839739584894
aF0.2619928736954595
aF0.6569908195365728
aF0.6572196488730438
aF0.2603557764149866
aa(lp367
F0.3446441963903222
aF-0.008142149169132556
aF0.05654759573340054
aF0.2617651132844714
aF0.6570750948033782
aF0.6572319279290056
aF0.26034119567794406
aa(lp368
F0.3447588947258353
aF-0.007833861901439573
aF0.05655288375111102
aF0.2616684435093803
aF0.6571125729066061
aF0.6572348465413751
aF0.26033641445478534
aa(lp369
F0.3448634448304412
aF-0.007551818115677553
aF0.05656659927740455
aF0.26157751231562526
aF0.6571346037894854
aF0.657251116064893
aF0.2603311122103112
aa(lp370
F0.3449573260557037
aF-0.007293832785508728
aF0.056583719606837654
aF0.2614901012501936
aF0.6571495888652309
aF0.657273487810005
aF0.2603246185524774
aa(lp371
F0.3452170471772086
aF-0.006575124961138573
aF0.056588468678467674
aF0.2613286186690854
aF0.6572184887908957
aF0.6573061149841751
aF0.26023044068734424
aa(lp372
F0.3456549561894482
aF-0.005330270166014117
aF0.05660919404126026
aF0.2610389316577407
aF0.6573295494739974
aF0.6573800173785393
aF0.26005394113277447
aa(lp373
F0.34584035289285553
aF-0.0047992230372301825
aF0.05661862213706631
aF0.2609227491829171
aF0.6573746555437279
aF0.6574126817195309
aF0.2599739354664783
aa(lp374
F0.34600744289703794
aF-0.004324425200805698
aF0.05662386704023213
aF0.26081575797598144
aF0.6574212550867281
aF0.6574346452189068
aF0.259907908724409
aa(lp375
F0.3461563521970844
aF-0.003890824950462418
aF0.05663419045221206
aF0.2607138514256438
aF0.6574580197081402
aF0.6574639952669521
aF0.25984290431696466
aa(lp376
F0.34629275815507643
aF-0.0035115329573764953
aF0.05663531888418885
aF0.2606328851923556
aF0.657499175081023
aF0.6574737704329463
aF0.25979525614754406
aa(lp377
F0.34652330705700596
aF-0.0028482176545308047
aF0.056652111476579725
aF0.26048372159090716
aF0.6575534777867051
aF0.6575162069294046
aF0.2597000043548872
aa(lp378
F0.3466217366459642
aF-0.002567308653956754
aF0.05665727770512699
aF0.2604187317787266
aF0.6575801620809664
aF0.6575299097207541
aF0.2596629207240545
aa(lp379
F0.34671046953203677
aF-0.0023154565278191847
aF0.05666094464149356
aF0.2603610373319576
aF0.6576049121942666
aF0.6575407449081954
aF0.2596306578256379
aa(lp380
F0.3471877799504019
aF-0.0009331198616305686
aF0.05666818402862292
aF0.26009161063702163
aF0.6577265149420009
aF0.6576273586431458
aF0.25937317282735545
aa(lp381
F0.3473913600490944
aF-0.00034266308199475126
aF0.05667516302402964
aF0.2599721635045265
aF0.6577773161242062
aF0.6576655926678934
aF0.2592671302267225
aa(lp382
F0.3477395499110676
aF0.000670171995844307
aF0.05669434665891983
aF0.2597629924833612
aF0.6578577639136417
aF0.6577384611585773
aF0.2590877590844061
aa(lp383
F0.3478878411363518
aF0.0011003272652764795
aF0.05670120229510042
aF0.25967456870683575
aF0.6578938566623049
aF0.657766543958097
aF0.2590134463350086
aa(lp384
F0.34802166105362276
aF0.0014864979525897604
aF0.05670737134223593
aF0.2595956866563939
aF0.6579265807574065
aF0.6577905519708687
aF0.25894841868627655
aa(lp385
F0.3481411211231996
aF0.0018384340442191421
aF0.0567167580943002
aF0.2595196972025518
aF0.6579534322909661
aF0.6578178895580885
aF0.2588869094368725
aa(lp386
F0.34825043521188
aF0.0021494135164325523
aF0.05672227581917605
aF0.2594594393068247
aF0.6579784075514343
aF0.6578364819775533
aF0.25883658460515774
aa(lp387
F0.3483469937916733
aF0.0024351254200436073
aF0.056731034310812736
aF0.2593979291946011
aF0.657998554696924
aF0.6578604314383077
aF0.2587861454833229
aa(lp388
F0.3484353759979114
aF0.0026846926037317337
aF0.056732058149626494
aF0.25934741546862816
aF0.6580246838543857
aF0.6578687413306875
aF0.2587492081302965
aa(lp389
F0.34868864154057516
aF0.0034079752109997946
aF0.05673448026142168
aF0.2592095583331327
aF0.6580885288617977
aF0.6579114509213608
aF0.25861634866304783
aa(lp390
F0.34911654755602706
aF0.004662133273814692
aF0.05675631924845281
aF0.25896988596102255
aF0.6581788812014208
aF0.6580127737813659
aF0.25836862821622486
aa(lp391
F0.34929889684636006
aF0.00519573533696005
aF0.056765772566308895
aF0.25886369481437743
aF0.658220171645594
aF0.65805296114038
aF0.25826748436508845
aa(lp392
F0.3496104074491164
aF0.006109951497159996
aF0.05678587033535758
aF0.2586797199674622
aF0.6582882342728079
aF0.6581245908011191
aF0.2580957691989618
aa(lp393
F0.349742748593329
aF0.0064982150504679925
aF0.05679272128371865
aF0.25860510911208284
aF0.6583190430649852
aF0.6581518858686886
aF0.25802234439408267
aa(lp394
F0.3498623633789436
aF0.00685060264335334
aF0.056804592563276385
aF0.25853228754984897
aF0.658342771741935
aF0.6581821825369403
aF0.2579574883198755
aa(lp395
F0.3499692779809479
aF0.007168337266383024
aF0.056814567596603305
aF0.25846654808059705
aF0.6583641849186758
aF0.6582100607070539
aF0.25789757564522503
aa(lp396
F0.350067012991197
aF0.0074499862794693145
aF0.05682149393736467
aF0.2584103903559484
aF0.6583862752909824
aF0.658228810232286
aF0.25784959965984483
aa(lp397
F0.35015363044786885
aF0.007706958102415923
aF0.056829600083407456
aF0.2583573361668981
aF0.6584038070671299
aF0.6582507781615241
aF0.25780191375938605
aa(lp398
F0.3504053778298034
aF0.008434030821862393
aF0.056835682537898544
aF0.258217327112789
aF0.6584658024384943
aF0.6582980705450274
aF0.2576630538405744
aa(lp399
F0.3506298136643941
aF0.009090406966506315
aF0.05684092265775491
aF0.2580949115224581
aF0.6585200230594156
aF0.6583434020232848
aF0.2575312813784935
aa(lp400
F0.3508308102998762
aF0.009687497635513825
aF0.05685317703945268
aF0.257975922745149
aF0.6585635491898152
aF0.6583937017072373
aF0.25741058353250407
aa(lp401
F0.35101470886356967
aF0.01021727642877994
aF0.05686224681401468
aF0.25787451623683555
aF0.6586062994803441
aF0.6584287004442356
aF0.2573132771384725
aa(lp402
F0.3511777917991419
aF0.010702085586907148
aF0.05687637347699598
aF0.2577769772186411
aF0.6586377284677762
aF0.6584730671451511
aF0.25721701440473416
aa(lp403
F0.351326897341559
aF0.011127569209486543
aF0.056879997519977146
aF0.25769741348938563
aF0.658675326894708
aF0.6584959182866582
aF0.25714194994368583
aa(lp404
F0.35157885574933334
aF0.011870216216325502
aF0.056902232357273014
aF0.25754848612693815
aF0.6587265662152989
aF0.6585577737323335
aF0.25700145313331707
aa(lp405
F0.3516867116034896
aF0.012184700194622256
aF0.05691017904420491
aF0.25748657536446035
aF0.6587496127636789
aF0.658581294672417
aF0.2569441369216046
aa(lp406
F0.3517831608954691
aF0.012469840820837588
aF0.056919818331120406
aF0.2574297361826352
aF0.6587686203191924
aF0.6586055166538319
aF0.25689026693284
aa(lp407
F0.3522762665827247
aF0.013903262537628344
aF0.05693473026062254
aF0.25715612496770435
aF0.658882521915807
aF0.6587080946696882
aF0.25660903281468767
aa(lp408
F0.35248556239741413
aF0.014516185016794553
aF0.05694413606869193
aF0.2570380925084655
aF0.6589295201498112
aF0.6587541133434595
aF0.25648844930682874
aa(lp409
F0.3528429601673847
aF0.015569736172347554
aF0.05697018093467994
aF0.25683043412070733
aF0.6590033265873962
aF0.6588416081051421
aF0.2562820303601975
aa(lp410
F0.35299563769163994
aF0.016016068084065208
aF0.056979203372476056
aF0.25674396875342087
aF0.6590371327201228
aF0.6588743920472944
aF0.25619743891984936
aa(lp411
F0.3532564697769255
aF0.01678119092274076
aF0.05699820429896152
aF0.2565940086575242
aF0.6590925307530505
aF0.6589334706941898
aF0.2560531816352043
aa(lp412
F0.3533676242715641
aF0.017109027562461937
aF0.05700943702804796
aF0.2565283382460649
aF0.65911413485151
aF0.658961383335988
aF0.2559915314762953
aa(lp413
F0.3534680726061848
aF0.017400307299511336
aF0.057015314795103064
aF0.25647242022255096
aF0.6591372046207683
aF0.6589804261121361
aF0.25593913563770193
aa(lp414
F0.3535575135462148
aF0.017667929784155698
aF0.05702659710730823
aF0.2564176179962603
aF0.659152843891266
aF0.6590061850020643
aF0.25588743951238657
aa(lp415
F0.35363932906680684
aF0.017903654381880296
aF0.05703261877370218
aF0.25637198550858353
aF0.6591711223330879
aF0.6590214773126681
aF0.25584669036192814
aa(lp416
F0.3541052526874895
aF0.01925537309276837
aF0.05704095261768556
aF0.25611833895554964
aF0.6592863790086118
aF0.6591078054656891
aF0.2555812349891253
aa(lp417
F0.354303216561435
aF0.019838902419304916
aF0.05705583315465024
aF0.2560035097339436
aF0.6593262544268153
aF0.6591576897303916
aF0.25546473983057233
aa(lp418
F0.3546420477631681
aF0.020831254900633228
aF0.057076082984757304
aF0.2558111053730156
aF0.6593992223786559
aF0.6592341197695596
aF0.2552718535716655
aa(lp419
F0.3547867066659674
aF0.021253319492462813
aF0.05708478987262308
aF0.25572951626103624
aF0.6594308590012145
aF0.6592651427911177
aF0.2551917479277573
aa(lp420
F0.35491683956406794
aF0.021635575175892485
aF0.05709693001028293
aF0.25565378114728765
aF0.6594565910130434
aF0.6592969266894239
aF0.2551190138198853
aa(lp421
F0.35503327227117004
aF0.02198007589068758
aF0.05710704868933916
aF0.2555855961820972
aF0.6594797336081842
aF0.6593260809159672
aF0.25505215742728327
aa(lp422
F0.3551394888223365
aF0.022286774314581925
aF0.057115084102145317
aF0.2555260225895032
aF0.6595027395502779
aF0.659347352436484
aF0.2549973669281036
aa(lp423
F0.3552338677737856
aF0.022565394324466012
aF0.05712338620575491
aF0.2554709747886248
aF0.6595216814289532
aF0.6593702813444634
aF0.2549442386981897
aa(lp424
F0.35531988496795314
aF0.022814001017885874
aF0.057130556888405515
aF0.25542240579273506
aF0.659539967571422
aF0.6593878028843204
aF0.25490027697577683
aa(lp425
F0.35579223317759134
aF0.024189136062681388
aF0.057142909728842284
aF0.2551624538387943
aF0.6596505295265088
aF0.6594833342015083
aF0.25462724315521174
aa(lp426
F0.35599296318715623
aF0.024780906581234552
aF0.057157094427669336
aF0.2550463266309684
aF0.6596915400916533
aF0.6595328683527123
aF0.25450901509768953
aa(lp427
F0.3563366090970515
aF0.02578753496535305
aF0.057176496193272544
aF0.25485159605604396
aF0.6597662774917484
aF0.6596089136541066
aF0.2543132007985776
aa(lp428
F0.35648334627494294
aF0.026215739396377752
aF0.05718494431464813
aF0.2547689777571052
aF0.6597986270024188
aF0.6596398218440725
aF0.2542318729346167
aa(lp429
F0.35673384764553717
aF0.026952331225720536
aF0.05720630920599459
aF0.2546234478723051
aF0.6598490025917917
aF0.6596997153720052
aF0.2540914778388537
aa(lp430
F0.3568409559391908
aF0.027264089488214974
aF0.057213310867524986
aF0.2545631565233093
aF0.6598725260808128
aF0.6597215875618574
aF0.25403400475030646
aa(lp431
F0.3569373802142561
aF0.02754584273769088
aF0.05722185472199462
aF0.2545077227704246
aF0.6598923015352959
aF0.6597431596373547
aF0.25398215042869215
aa(lp432
F0.3570236541141099
aF0.02779987920605928
aF0.057229083221551846
aF0.2544578224409541
aF0.6599099697483355
aF0.6597631649089536
aF0.25393427231210763
aa(lp433
F0.35710221267692377
aF0.028027057576478248
aF0.05723588358558662
aF0.25441333861961407
aF0.6599265939443871
aF0.6597790776410963
aF0.2538942938398694
aa(lp434
F0.35756169345398403
aF0.029368951644694802
aF0.057252819261412125
aF0.2541570777783274
aF0.660030449648474
aF0.6598770857013266
aF0.2536261365047742
aa(lp435
F0.357757404134233
aF0.029940621957557492
aF0.05726073369894359
aF0.2540479525873433
aF0.6600748075318704
aF0.6599180043291953
aF0.2535135377255333
aa(lp436
F0.35793395187954025
aF0.030453796078012393
aF0.057267677160975014
aF0.25395039216962134
aF0.6601155725759142
aF0.6599527025819587
aF0.25341479734703154
aa(lp437
F0.35809133087552686
aF0.030924182607382764
aF0.05728403645102892
aF0.25385575270057453
aF0.6601438963810882
aF0.6599974271181476
aF0.25331934211395196
aa(lp438
F0.3582355718024667
aF0.03133581408098436
aF0.05728753533310507
aF0.25377896611509493
aF0.6601799202317908
aF0.6600192273733684
aF0.25324558984859247
aa(lp439
F0.35836315082804115
aF0.03171668718289508
aF0.057301750096793794
aF0.2537020762566954
aF0.6602025955117303
aF0.6600552060869669
aF0.2531697341707894
aa(lp440
F0.3584800747759148
aF0.032050050678827366
aF0.05730539856704242
aF0.25363960967250193
aF0.660231506511404
aF0.6600727577944931
aF0.2531111625994302
aa(lp441
F0.35867773697324457
aF0.03263125532677914
aF0.05732399474780009
aF0.25352418301609175
aF0.6602702452667136
aF0.6601203737005079
aF0.25300154953469917
aa(lp442
F0.3587623015166497
aF0.03287696892905852
aF0.05732974005284645
aF0.25347657686643316
aF0.6602886847149118
aF0.6601373615010787
aF0.2529567982243633
aa(lp443
F0.35901190385785725
aF0.033598833606718476
aF0.05733839397037377
aF0.2533396473513969
aF0.6603461726601726
aF0.6601873273569834
aF0.2528134650887381
aa(lp444
F0.35923405862131186
aF0.03425541636098131
aF0.05735187233948119
aF0.25321199200435535
aF0.6603918593932352
aF0.6602429031182595
aF0.25267684506955596
aa(lp445
F0.3594374216064489
aF0.03483431564036843
aF0.05735461566758385
aF0.2531047244235186
aF0.660443150383406
aF0.6602740629272877
aF0.2525688132205329
aa(lp446
F0.3597816216363995
aF0.0358418298805146
aF0.05738003769102412
aF0.2529075060283007
aF0.6605135172458368
aF0.6603550304329785
aF0.25237060191697946
aa(lp447
F0.3599287974595739
aF0.03626886075430916
aF0.05738892925744671
aF0.25282515958758167
aF0.660545619765492
aF0.6603855219547943
aF0.2522892888741611
aa(lp448
F0.36018034442187313
aF0.03700092239299625
aF0.05740767310620304
aF0.25268245607238704
aF0.6605981869634193
aF0.6604405037471051
aF0.2521506549349806
aa(lp449
F0.36028757783555376
aF0.037314400381200596
aF0.05741845334115414
aF0.25262015551413614
aF0.6606189059100247
aF0.6604661733460264
aF0.25209155489209134
aa(lp450
F0.3603843428688336
aF0.0375953267818583
aF0.057427192255058046
aF0.25256492084375065
aF0.6606386021535582
aF0.6604873523791084
aF0.2520397894202784
aa(lp451
F0.3604709854159563
aF0.037848440267460315
aF0.05743448137790767
aF0.2525154449066133
aF0.6606562966601995
aF0.660506744259206
aF0.25199215970928435
aa(lp452
F0.36072164603292556
aF0.0385738340288867
aF0.05744157337239769
aF0.25237786874100543
aF0.660714920211006
aF0.6605550842219382
aF0.25184953104752844
aa(lp453
F0.3611475844888551
aF0.03982099572250811
aF0.057460375578700984
aF0.25213840760956036
aF0.6608086951978601
aF0.6606477912714186
aF0.25160005494278537
aa(lp454
F0.3613296079987772
aF0.0403518176812903
aF0.057469349456379396
aF0.25203636981055877
aF0.6608488764595658
aF0.6606858717186074
aF0.2514967389177621
aa(lp455
F0.3616408400626775
aF0.04126147367702726
aF0.05748919741712637
aF0.25185970935294416
aF0.6609149046842866
aF0.6607539083367784
aF0.25132140415906334
aa(lp456
F0.3617735442660947
aF0.041650958930078086
aF0.05750125111753086
aF0.25178254918907383
aF0.6609409528235842
aF0.6607855905547355
aF0.2512469066868958
aa(lp457
F0.3618935351120969
aF0.041997817982674907
aF0.05750788495154542
aF0.25171601696475143
aF0.6609679208904309
aF0.6608082086195297
aF0.251183131954019
aa(lp458
F0.36200046078566583
aF0.042315436302620635
aF0.0575202668334142
aF0.25165204262018637
aF0.6609868773659845
aF0.6608371447782974
aF0.2511212166988696
aa(lp459
F0.3620981913609068
aF0.04259615571063795
aF0.05752709506264586
aF0.2515975766664649
aF0.6610084343966984
aF0.6608551502163597
aF0.25107166208973175
aa(lp460
F0.3621851252533771
aF0.042850920723940714
aF0.05753420281491278
aF0.25154777979840237
aF0.6610261652616705
aF0.6608745631609116
aF0.2510237739434645
aa(lp461
F0.36243588759111633
aF0.04357796504047087
aF0.05754125167861812
aF0.25140954086645695
aF0.6610846050372815
aF0.6609230542993871
aF0.2508806569657938
aa(lp462
F0.36286216920898917
aF0.04482780973598287
aF0.05756008227225727
aF0.2511692026928536
aF0.6611779632881022
aF0.6610158973519327
aF0.2506306364530338
aa(lp463
F0.3630443475570258
aF0.045359770165017264
aF0.0575689827553022
aF0.2510668509047873
aF0.6612180163227847
aF0.6610539875747142
aF0.25052703801882253
aa(lp464
F0.3632082986874595
aF0.0458409491675119
aF0.057581740714818336
aF0.2509722074160515
aF0.6612512305889616
aF0.6610920799513933
aF0.2504336698106687
aa(lp465
F0.363355154931554
aF0.046274776914708445
aF0.05759302417112827
aF0.2508871794701329
aF0.661280563536296
aF0.661127426926192
aF0.2503480873355988
aa(lp466
F0.36348917876193304
aF0.04666073812239021
aF0.05760093216657895
aF0.25081257229635257
aF0.661310533259108
aF0.6611522355355353
aF0.2502781525123697
aa(lp467
F0.3636083098101517
aF0.047011877528012745
aF0.05761070562163029
aF0.2507436449659745
aF0.6613342184490786
aF0.6611803903534855
aF0.2502102464519321
aa(lp468
F0.36371695885230554
aF0.04732462980779893
aF0.05761801703866681
aF0.2506828994360452
aF0.6613581163931664
aF0.6612006208147477
aF0.2501544819614728
aa(lp469
F0.3638135913880047
aF0.04760874153768785
aF0.05762614358910244
aF0.2506271537156006
aF0.6613773906733412
aF0.6612228918067513
aF0.25010050835065606
aa(lp470
F0.364072880310904
aF0.048361642341199405
aF0.057632999301363425
aF0.2504837766552484
aF0.6614377292449458
aF0.6612730785443001
aF0.24995184247442098
aa(lp471
F0.3643053598598591
aF0.0490403793074167
aF0.05763990088714935
aF0.2503547236464039
aF0.6614909494272693
aF0.6613197884010987
aF0.24981668007334631
aa(lp472
F0.3645131146391517
aF0.04965731907982262
aF0.05765306140535231
aF0.25023436470995747
aF0.6615327981830359
aF0.6613712838010748
aF0.24969009713972434
aa(lp473
F0.3647027721846212
aF0.050206448002881994
aF0.0576624604787363
aF0.2501283784347278
aF0.6615752838363639
aF0.6614079736814208
aF0.2495865190051041
aa(lp474
F0.36487140966820153
aF0.050705915485642274
aF0.05767484512288858
aF0.25003054949802134
aF0.6616087879309643
aF0.661449123941299
aF0.2494866579349001
aa(lp475
F0.3650253638645865
aF0.051150219563754304
aF0.057683359971451076
aF0.24994462325212574
aF0.6616431699735323
aF0.6614779514478472
aF0.24940513363418948
aa(lp476
F0.3652867153496386
aF0.051915100543412494
aF0.05770221240796036
aF0.24979513190672825
aF0.6616970844612924
aF0.661535149677987
aF0.24926011761139977
aa(lp477
F0.36539842249102594
aF0.05224030884062676
aF0.05770991220666585
aF0.24973187289544194
aF0.6617206942589026
aF0.6615581068384989
aF0.24919989110333093
aa(lp478
F0.36558903611150984
aF0.052799965022452974
aF0.057728545226303274
aF0.2496205373238677
aF0.6617572458857289
aF0.6616029292448957
aF0.24909536101351185
aa(lp479
F0.36584014275450305
aF0.05354290399856283
aF0.057741851830597005
aF0.2494760874863978
aF0.6618094204663569
aF0.6616630915398325
aF0.2489416117253509
aa(lp480
F0.3660691513360048
aF0.05420037783904735
aF0.05774364600280117
aF0.24935320330558639
aF0.6618664360307115
aF0.6616994732505384
aF0.2488164141635498
aa(lp481
F0.3662723020748734
aF0.054802903390262434
aF0.05775650879984036
aF0.24923582331248376
aF0.6619073787040509
aF0.6617490862306641
aF0.24869313072089808
aa(lp482
F0.36645772986068303
aF0.055339491324276124
aF0.05776584340807575
aF0.24913207743144658
aF0.6619487698403739
aF0.6617847331113683
aF0.24859203752779885
aa(lp483
F0.36677286758464767
aF0.05626183699380886
aF0.05778576479966663
aF0.24895274766450406
aF0.6620148227286672
aF0.6618529737121974
aF0.24841405979965486
aa(lp484
F0.3669075803112144
aF0.05665420324168399
aF0.057794276344902154
aF0.24887665271995132
aF0.6620434850755756
aF0.6618806538700649
aF0.24834016113475113
aa(lp485
F0.3671375777251293
aF0.05732888988070953
aF0.05781497479761724
aF0.24874307356112443
aF0.6620883682370338
aF0.6619338034540941
aF0.2482126423963607
aa(lp486
F0.36723603624766027
aF0.05761462006270039
aF0.0578218800929545
aF0.24868755740712642
aF0.6621092121944513
aF0.6619534184828182
aF0.24816035476488077
aa(lp487
F0.3673245821200989
aF0.057873281059627614
aF0.05783079142720052
aF0.24863611359197946
aF0.6621263707298188
aF0.6619733826311022
aF0.2481128632094098
aa(lp488
F0.36780024157819613
aF0.05926636250115661
aF0.057848459480490305
aF0.24836841472113505
aF0.6622315150598411
aF0.6620736237981085
aF0.24783274138276912
aa(lp489
F0.36800326802750694
aF0.05985988254540836
aF0.05785711665728874
aF0.24825447311745624
aF0.6622761617784413
aF0.6621155378938133
aF0.2477155961920374
aa(lp490
F0.3683506708222603
aF0.06087674660482045
aF0.05787699974166359
aF0.24805736712714777
aF0.6623497004103006
aF0.6621899550672792
aF0.24751743451386907
aa(lp491
F0.3684991971513118
aF0.06130944564005583
aF0.057885730583357345
aF0.24797359571948838
aF0.6623814491960385
aF0.6622203177105773
aF0.24743516807076113
aa(lp492
F0.3686328534908266
aF0.06170079938131693
aF0.05789745881431381
aF0.2478961960238156
aF0.6624079184462464
aF0.6622505386882526
aF0.24736097021105108
aa(lp493
F0.3687526691522081
aF0.06205321557958442
aF0.05790716114588934
aF0.24782718937562354
aF0.6624315650668764
aF0.6622780671667554
aF0.2472930802895508
aa(lp494
F0.3688617931332553
aF0.062368165212912274
aF0.05791562597634642
aF0.24776527092315956
aF0.6624545990978739
aF0.662299292022175
aF0.2472365718201385
aa(lp495
F0.3689590376352029
aF0.06265324833772122
aF0.05792364186264716
aF0.24770953439140583
aF0.6624739073441713
aF0.6623209414877427
aF0.24718268371091331
aa(lp496
F0.36904749205887066
aF0.06290857262513103
aF0.05793127860864372
aF0.24765908204682616
aF0.662492190862297
aF0.6623384179670543
aF0.24713740350480543
aa(lp497
F0.3692977212419344
aF0.06363838050132634
aF0.0579387695513732
aF0.24751915733832985
aF0.6625489544465105
aF0.6623882890444706
aF0.24699170886711513
aa(lp498
F0.3695208714211853
aF0.06430093424139105
aF0.05795099516321485
aF0.2473907609775145
aF0.6625944227450592
aF0.6624420415703496
aF0.24685417535503662
aa(lp499
F0.36972514783965926
aF0.06488751799818245
aF0.057954355529400425
aF0.2472801062226473
aF0.6626439323645518
aF0.6624749895957089
aF0.246743705344483
aa(lp500
F0.3700712217678523
aF0.06590511002534526
aF0.057978316450151154
aF0.2470806867988944
aF0.6627139446806567
aF0.6625538536891292
aF0.2465436121631913
aa(lp501
F0.3702193808152707
aF0.06633683673354746
aF0.05798699688741056
aF0.24699712159394968
aF0.6627454716226473
aF0.6625840857053349
aF0.24646133801877326
aa(lp502
F0.3703527016859639
aF0.06672722054440235
aF0.057998378343259965
aF0.2469199103056878
aF0.6627718344415515
aF0.6626140785106623
aF0.24638716753329018
aa(lp503
F0.3704722453517972
aF0.06707877622872416
aF0.05800795774920735
aF0.2468511751565923
aF0.6627953645094123
aF0.6626413731015026
aF0.24631933087518706
aa(lp504
F0.37058110830226176
aF0.06739304108159017
aF0.058016273390743014
aF0.24678932495581965
aF0.6628182444215006
aF0.6626625419702282
aF0.24626278529125384
aa(lp505
F0.37067814782644054
aF0.06767742250853129
aF0.05802416932262758
aF0.2467338296813686
aF0.6628374665666328
aF0.66268398703248
aF0.24620894284535896
aa(lp506
F0.3709371489738971
aF0.06843108190317337
aF0.058030995559206655
aF0.24658920060798256
aF0.662896916378374
aF0.6627338185325364
aF0.24605960695092222
aa(lp507
F0.3711695831839976
aF0.0691103550004029
aF0.05803791514933426
aF0.24645963919079153
aF0.6629491846537519
aF0.6627800700989342
aF0.24592397910029476
aa(lp508
F0.3713774145810813
aF0.06972705740568307
aF0.058050523933245696
aF0.24633972736349496
aF0.6629907884094083
aF0.662829943450067
aF0.24579751681563275
aa(lp509
F0.37156715129636153
aF0.07027683151127741
aF0.05806007834960783
aF0.2462329028188671
aF0.6630326318494114
aF0.6628663332081017
aF0.2456935305853271
aa(lp510
F0.37173600117776184
aF0.07077618359039925
aF0.05807210259506927
aF0.2461354533328644
aF0.6630658939993237
aF0.6629062204409879
aF0.24559377379760172
aa(lp511
F0.37189014759654115
aF0.07122109143536046
aF0.05808083681491831
aF0.24604886397152054
aF0.66309968664438
aF0.6629348873544639
aF0.2455119085477801
aa(lp512
F0.3721519807926269
aF0.07198653191306174
aF0.05809986620461598
aF0.24589923277941864
aF0.6631527327844154
aF0.6629911349629756
aF0.24536661402798943
aa(lp513
F0.37226367494141577
aF0.07231393269497483
aF0.058110444247242626
aF0.24583412492292822
aF0.6631740762848294
aF0.6630167143179979
aF0.24530504296101985
aa(lp514
F0.3724550519883479
aF0.0728718534362447
aF0.0581262380415615
aF0.24572463239235273
aF0.6632121915662712
aF0.6630573808193619
aF0.24520176127930726
aa(lp515
F0.37270582891280185
aF0.07361418148738641
aF0.05813857908001174
aF0.24558036641794162
aF0.6632642755747877
aF0.6631155624264465
aF0.24504802640327306
aa(lp516
F0.3729346999191774
aF0.07427270488485097
aF0.0581411799450907
aF0.24545609558729656
aF0.6633196364356994
aF0.6631528034381385
aF0.24492187397206702
aa(lp517
F0.37313783992193583
aF0.07487485699237884
aF0.05815364824597544
aF0.24533906885572163
aF0.6633602131038843
aF0.6632010162192368
aF0.24479865410076984
aa(lp518
F0.3733232950486468
aF0.07541187584496298
aF0.05816334527665015
aF0.24523452308969226
aF0.6634009186571341
aF0.6632363986713576
aF0.24469721961495491
aa(lp519
F0.37363867458832567
aF0.07633451093897634
aF0.058183558267968866
aF0.24505492909276727
aF0.6634658158588125
aF0.6633036467689388
aF0.24451884405330834
aa(lp520
F0.37377325622404334
aF0.07672913003380274
aF0.05819528450221642
aF0.2449767391855741
aF0.6634919472023346
aF0.663334173687643
aF0.24444346437119036
aa(lp521
F0.3738950821022483
aF0.07708129014766105
aF0.05820236546901961
aF0.24490884847128666
aF0.6635181818631558
aF0.663356945698472
aF0.24437847873958737
aa(lp522
F0.3740036704695758
aF0.07740260811775565
aF0.0582141456047094
aF0.2448446674036363
aF0.663537565378112
aF0.663384167080506
aF0.24431626029184714
aa(lp523
F0.37410290885709374
aF0.0776877842736634
aF0.058221413217109136
aF0.24478870433413433
aF0.6635586301914348
aF0.6634023704216881
aF0.24426569437349965
aa(lp524
F0.37436225651137556
aF0.07844471711902926
aF0.058228499471765144
aF0.24464315882984583
aF0.6636172347935813
aF0.6634531313082742
aF0.2441143852375799
aa(lp525
F0.37480453680792286
aF0.07974405344227346
aF0.058247743355464135
aF0.24439248260427027
aF0.6637114174550028
aF0.6635473338854698
aF0.24385324373458103
aa(lp526
F0.37499381305182156
aF0.08029728079004719
aF0.058257122049558935
aF0.24428564284257281
aF0.6637516775548546
aF0.6635861514819567
aF0.24374506108939517
aa(lp527
F0.3751642440253564
aF0.08079714587692421
aF0.058269888167957265
aF0.24418709759846421
aF0.6637857829622879
aF0.6636239043138132
aF0.243648126048348
aa(lp528
F0.37531705887350375
aF0.0812477273028217
aF0.05828130792684981
aF0.24409921277283117
aF0.66381561868617
aF0.6636589938208093
aF0.2435593123506728
aa(lp529
F0.3754565382764757
aF0.08164955405540474
aF0.058289989972216155
aF0.24402063408174585
aF0.6638457135457405
aF0.6636846081828606
aF0.24348622057613864
aa(lp530
F0.3756934491201739
aF0.08234071435438599
aF0.058308297505385354
aF0.24388532296030796
aF0.663892993067692
aF0.6637347087820223
aF0.2433562807042619
aa(lp531
F0.37579452135656916
aF0.08263624066332986
aF0.05831815573088624
aF0.24382651119979237
aF0.6639121670908497
aF0.6637573117884149
aF0.2433012492205626
aa(lp532
F0.37596770062676943
aF0.08313998983899018
aF0.058333006758526165
aF0.24372762474179002
aF0.6639462315049041
aF0.6637934717690814
aF0.24320870347278115
aa(lp533
F0.3762107375622331
aF0.08385889212047547
aF0.05834509895058072
aF0.24358772243084562
aF0.6639965769586617
aF0.6638488557010747
aF0.24306020664129097
aa(lp534
F0.3764325773796604
aF0.08449724655661758
aF0.05834824116217187
aF0.2434667558758018
aF0.6640494636909855
aF0.663885130772225
aF0.2429378144599415
aa(lp535
F0.37680862543053295
aF0.0856028235878736
aF0.05837185209615073
aF0.24325060653511477
aF0.664125825668954
aF0.6639683845682438
aF0.24271797295146028
aa(lp536
F0.3769697345913542
aF0.08607224937389954
aF0.05838081812172882
aF0.2431598501141832
aF0.6641597599523943
aF0.6640007823086375
aF0.2426274132202368
aa(lp537
F0.377245367894403
aF0.08687666478675607
aF0.05839996217926259
aF0.24300296480165887
aF0.6642156846045153
aF0.6640584883256719
aF0.2424735191842243
aa(lp538
F0.37736298708624527
aF0.08722062177032466
aF0.058410638818817515
aF0.2429347343259105
aF0.6642383767184942
aF0.6640845073583889
aF0.24240845867862187
aa(lp539
F0.3774692243134605
aF0.08752920073111736
aF0.05841953751612748
aF0.24287395365879802
aF0.66425960459823
aF0.6641063607495734
aF0.24235131925596085
aa(lp540
F0.3775644224588432
aF0.08780716072792938
aF0.058426941842229865
aF0.24282019568002186
aF0.664278379894659
aF0.66412646588703
aF0.24229862542500427
aa(lp541
F0.37765102319507654
aF0.0880565328735662
aF0.05843460221425674
aF0.2427706367975332
aF0.6642959847547885
aF0.6641431325621838
aF0.2422543333318838
aasS'object_pose_palm'
p542
(lp543
(lp544
F0.37762424973571507
aF-0.09458545993885159
aF0.34088229278373905
aF0.9325473210992556
aF0.22574913713400174
aF0.2679040744332888
aF-0.08729391671759562
aa(lp545
F0.22214215327125908
aF-0.10435176414146202
aF0.283048524935409
aF0.8604871432648259
aF0.41427292740987526
aF0.2892757617514683
aF-0.06526370778847472
aa(lp546
F0.16093544157229772
aF-0.12331516535641629
aF0.25513313506846363
aF0.8167819549324488
aF0.4878161517777308
aF0.3023931700955376
aF-0.05883035645875871
aa(lp547
F0.07554891196343017
aF-0.1732069213666343
aF0.1988833362828717
aF0.7256541511341745
aF0.6016714714619965
aF0.33105870507101326
aF-0.04263363891576909
aa(lp548
F0.04673913374049543
aF-0.1933561645900587
aF0.17118029920122796
aF0.679682934194523
aF0.6423195829304641
aF0.3522135154392791
aF-0.03744732154190774
aa(lp549
F0.015781159120496047
aF-0.22909367342184753
aF0.11534311435029845
aF0.5960914433095704
aF0.7012247629430836
aF0.3906233543411414
aF-0.019292954460234712
aa(lp550
F0.010939818936397672
aF-0.2335673893831195
aF0.0858395778669278
aF0.5588611281504733
aF0.715776447349792
aF0.4186258398561874
aF-0.009524865688938669
aa(lp551
F0.008906413419110193
aF-0.22837621867571148
aF0.05623091948972948
aF0.5310011043400122
aF0.7196060031340349
aF0.44743001577641006
aF-0.0033776360769355663
aa(lp552
F0.008583215283545997
aF-0.21927790091301086
aF0.028862531467115107
aF0.5085341820383479
aF0.7192026846472339
aF0.4734288473922621
aF0.002368660303669061
aa(lp553
F0.009114972776063768
aF-0.21868060929860822
aF0.005653039019545836
aF0.48605461673695555
aF0.7248540242246007
aF0.4880647742087613
aF0.011416185468195613
aa(lp554
F0.018023649144937315
aF-0.2121421202312189
aF-0.03498949507496657
aF0.44688758731540645
aF0.7298164738919836
aF0.5162241705872942
aF0.034234550394988815
aa(lp555
F0.024080658329559412
aF-0.1956913616231189
aF-0.05364263591734729
aF0.4340450893747067
aF0.7225989420197535
aF0.5361590168520388
aF0.0445997536976488
aa(lp556
F0.02364214525282632
aF-0.16901636996388558
aF-0.06883905679803015
aF0.42798675656274365
aF0.7095486246324554
aF0.5578575612244532
aF0.04650835273151466
aa(lp557
F0.022397544912276135
aF-0.14004131311641507
aF-0.08066670286545996
aF0.4240755179651958
aF0.6950737853430435
aF0.5786281913524713
aF0.04713601768935638
aa(lp558
F0.02029606657304972
aF-0.1252053590731406
aF-0.08957554120986899
aF0.416644630419535
aF0.6901013458439884
aF0.5897898294816515
aF0.04811799504229004
aa(lp559
F0.01682352858543046
aF-0.10056372945209463
aF-0.09621254740903043
aF0.4131424041752082
aF0.6788966417802078
aF0.6052864186400208
aF0.045178037383474166
aa(lp560
F0.018442645439325278
aF-0.0895134470857861
aF-0.09295555580570987
aF0.4136583570888409
aF0.6753690721955832
aF0.6083748997546111
aF0.05141362932924345
aa(lp561
F0.026297307631467315
aF-0.07516794670451579
aF-0.09375935532629395
aF0.41382178574010375
aF0.6664745466887535
aF0.6158522927326119
aF0.07272662372802267
aa(lp562
F0.030263272250830198
aF-0.06593768733946623
aF-0.08802347777920459
aF0.41093382408706386
aF0.6680066421104708
aF0.6170395921247145
aF0.06451867999301943
aa(lp563
F0.032866640401350455
aF-0.06062540448092621
aF-0.0871916927237697
aF0.4115408045495491
aF0.6642576035475023
aF0.6196622790163826
aF0.07358438886246015
aa(lp564
F0.03410890009518969
aF-0.05289340445590543
aF-0.08504208485342582
aF0.41293709596650596
aF0.6595564015968403
aF0.6228819212558544
aF0.08053831423609287
aa(lp565
F0.037576039510038156
aF-0.049515882810651446
aF-0.08702029189829619
aF0.4125289188722733
aF0.6560780324131775
aF0.6251573869616447
aF0.09251890620957012
aa(lp566
F0.04299737230667314
aF-0.04193851370748419
aF-0.08955324022161457
aF0.41104877694650066
aF0.6510976025627431
aF0.6284522689181522
aF0.11026586325541045
aa(lp567
F0.046005840648276314
aF-0.04004303843452656
aF-0.08986417374869378
aF0.40592684212604296
aF0.6549094493119493
aF0.6283391226477286
aF0.1072704945163436
aa(lp568
F0.05151427507865522
aF-0.03826292335553674
aF-0.09138909051048996
aF0.38674554007694345
aF0.6540179722321662
aF0.64287801811322
aF0.09693416866480464
aa(lp569
F0.053727360419988074
aF-0.0382911229546431
aF-0.09118608193696706
aF0.3723908890238585
aF0.6537133501931162
aF0.6532046238576991
aF0.08548450691344303
aa(lp570
F0.056176606728135375
aF-0.038480291829952634
aF-0.09043482684213289
aF0.3637414867940256
aF0.6469088700936982
aF0.6648864920342213
aF0.08442154517298174
aa(lp571
F0.0616045879079013
aF-0.03411144194167259
aF-0.0919253271508956
aF0.3671790952096129
aF0.6450210997854575
aF0.6634562957503457
aF0.09462048669204107
aa(lp572
F0.06318825259043015
aF-0.03147066894456013
aF-0.09177854383066528
aF0.3670213572073929
aF0.6468557559744561
aF0.6619472271207616
aF0.09326747998897088
aa(lp573
F0.06585227432628246
aF-0.028607453924963
aF-0.09204003714095388
aF0.3611969138007171
aF0.6494416030317706
aF0.6634691050609388
aF0.08701229994660913
aa(lp574
F0.06748306266207721
aF-0.02637926228416651
aF-0.092247380693236
aF0.35579201222680823
aF0.6452398769547337
aF0.6705663303183435
aF0.08612979662363662
aa(lp575
F0.06912463135999178
aF-0.024319878137720546
aF-0.09242976095557352
aF0.3571144873046707
aF0.6447194422232275
aF0.6699343101352637
aF0.08940975271233362
aa(lp576
F0.07043537198462801
aF-0.022647758191136624
aF-0.09288375794213642
aF0.3572530781142069
aF0.6440882473887414
aF0.6701945336387448
aF0.09143224176606987
aa(lp577
F0.07133157786685423
aF-0.02120069041041034
aF-0.09299828537040317
aF0.35683439531196076
aF0.6431350344382836
aF0.670845427353925
aF0.09493658093035115
aa(lp578
F0.07224964578151086
aF-0.02012255273772215
aF-0.09340145972542735
aF0.3577082947089942
aF0.6424293009943804
aF0.670679144869196
aF0.09756461324567998
aa(lp579
F0.07319179672165385
aF-0.019279201746296687
aF-0.09382432757148862
aF0.35862935397815404
aF0.6419265328533134
aF0.6702976584885877
aF0.10008177610760334
aa(lp580
F0.07450839052196301
aF-0.017322646275118092
aF-0.0940307402895066
aF0.3598344876851091
aF0.640788931372596
aF0.6703352506842174
aF0.10275864242431809
aa(lp581
F0.07544486542453521
aF-0.015023724567828911
aF-0.09370964338605366
aF0.3609342973026017
aF0.6402300294178501
aF0.6701107620276502
aF0.10384367615323449
aa(lp582
F0.07643260469102361
aF-0.01340935195950732
aF-0.09382338984325901
aF0.36219666414484236
aF0.6397710540009856
aF0.6696054286399867
aF0.10552319593660739
aa(lp583
F0.07711317362633227
aF-0.011847471676199817
aF-0.09376723777201695
aF0.36312036725408375
aF0.6392918047527479
aF0.6693677238958278
aF0.10675409813095035
aa(lp584
F0.0779460274573022
aF-0.010505890678868424
aF-0.09386365562363203
aF0.3646505532185368
aF0.6381352123225492
aF0.669254050280266
aF0.10914412954863631
aa(lp585
F0.07897534022228658
aF-0.008043664645484505
aF-0.09342294359984915
aF0.36588276452286134
aF0.6365446546243941
aF0.66942115952594
aF0.1132078463409905
aa(lp586
F0.07937832477427278
aF-0.006833246625004785
aF-0.09300288995634155
aF0.3656003813574011
aF0.6360776742273077
aF0.6697589002747465
aF0.11473695570157036
aa(lp587
F0.08002400437686044
aF-0.004865505397319753
aF-0.09229753340886286
aF0.36502409327099966
aF0.6352747194994248
aF0.6703911550709319
aF0.11729936615034836
aa(lp588
F0.08027789703808444
aF-0.0040196672518367504
aF-0.0920116912267593
aF0.3645991642479247
aF0.6348116298143693
aF0.6708376826457311
aF0.1185683247104577
aa(lp589
F0.08086889090346708
aF-0.001943907171105097
aF-0.09089362937140233
aF0.3645841824839384
aF0.6343385707200981
aF0.670910149566632
aF0.12071670467578456
aa(lp590
F0.08188689482324257
aF0.0014383718108643695
aF-0.08958107659857795
aF0.36536050023145034
aF0.6337190947973568
aF0.6709114613985995
aF0.1216126010076209
aa(lp591
F0.08217629685474953
aF0.002914208147939884
aF-0.08874145196536298
aF0.3657223804594647
aF0.6332557025418529
aF0.670883600501626
aF0.12308350907924921
aa(lp592
F0.0826063115293855
aF0.005354148587895485
aF-0.08738477429460215
aF0.3664234621990863
aF0.6323078817935633
aF0.6708014773024777
aF0.12627734167531915
aa(lp593
F0.0827857022304592
aF0.006403918517932677
aF-0.08681079175461856
aF0.3667476239311477
aF0.6317983970114135
aF0.6708335399119494
aF0.127707977839557
aa(lp594
F0.08300408208141685
aF0.007414126409846622
aF-0.08629779561593137
aF0.36705025633472477
aF0.6313172006256973
aF0.6708623536234165
aF0.12905969165311218
aa(lp595
F0.08313075832242736
aF0.008329220334250709
aF-0.08582555916910306
aF0.36728659616216947
aF0.6308610463285595
aF0.6709355710327689
aF0.13023193167489766
aa(lp596
F0.08335849919076993
aF0.009116140232728664
aF-0.08542379915022628
aF0.3675815901543108
aF0.6304316085525721
aF0.6709549213258477
aF0.13137448407537258
aa(lp597
F0.0834986689204435
aF0.00989458209387628
aF-0.0850406978021201
aF0.3677625559085972
aF0.6300751307152498
aF0.6710123748371857
aF0.13228161225619162
aa(lp598
F0.08408987090334369
aF0.0118753950626459
aF-0.08388648632152679
aF0.36834911800634657
aF0.6296453539935931
aF0.6707488310154116
aF0.13402112202816435
aa(lp599
F0.08480655579344218
aF0.015219892086601405
aF-0.0819044918271158
aF0.3692178557072258
aF0.6287785047704563
aF0.6705009499278735
aF0.13690961657753326
aa(lp600
F0.08509048329501204
aF0.016643658330822514
aF-0.08108520758977429
aF0.3696296064317675
aF0.6282682708109867
aF0.6704515192987053
aF0.13837519362706338
aa(lp601
F0.08535113523488003
aF0.017931358174626516
aF-0.08034773691399912
aF0.37001996327988385
aF0.6277477574609712
aF0.6704262973480816
aF0.13980901115885425
aa(lp602
F0.08551222021368748
aF0.019100126657443317
aF-0.07967151698695951
aF0.3703271717860538
aF0.6272524577437857
aF0.6704602835293092
aF0.14105016235765716
aa(lp603
F0.08578363408257544
aF0.020107709527889844
aF-0.07908924314886638
aF0.370702050679793
aF0.626777792024494
aF0.6704425464175402
aF0.14225463437041594
aa(lp604
F0.08590791730185499
aF0.021047644016876366
aF-0.078542675445781
aF0.37096330078511053
aF0.6263064302207771
aF0.6705120247256768
aF0.14331821110031953
aa(lp605
F0.08611980946303274
aF0.02185760478473156
aF-0.07807290244581734
aF0.37127627414626013
aF0.6258597116920477
aF0.6705387954003854
aF0.14433043130198872
aa(lp606
F0.08638377144425036
aF0.023243277121720668
aF-0.07725147011008461
aF0.37172322466748303
aF0.6251867478095477
aF0.6705819403015857
aF0.1458877511907343
aa(lp607
F0.08674377834631761
aF0.025103976622506213
aF-0.07614119470988968
aF0.37219902469799043
aF0.6245984096761142
aF0.6704877136568634
aF0.1476175412311342
aa(lp608
F0.08718932732585732
aF0.02672780651952275
aF-0.07516384546395748
aF0.3727312893055121
aF0.6240325884369244
aF0.6703598304948634
aF0.1492394458588638
aa(lp609
F0.08741578842943734
aF0.02823623457777591
aF-0.07424835014627065
aF0.3730880219123324
aF0.6234941784156152
aF0.6703533307587983
aF0.15062121141447887
aa(lp610
F0.08776571015585935
aF0.02953915833324386
aF-0.07345534026678092
aF0.3735303566068231
aF0.6229710897375659
aF0.6702905720906648
aF0.1519626368905794
aa(lp611
F0.08794242461144111
aF0.030750962661753062
aF-0.0727132806932072
aF0.37383068826706
aF0.6224630103248291
aF0.6703273421504918
aF0.15313938635304014
aa(lp612
F0.08821641317657847
aF0.03179760177223337
aF-0.07207137985347714
aF0.3741970645455192
aF0.6219746241357924
aF0.6703193708983849
aF0.1542597316704852
aa(lp613
F0.08869365913395075
aF0.03364981353030436
aF-0.07086882941722093
aF0.37458737862959907
aF0.6215895333460799
aF0.6702766520243415
aF0.155048242676427
aa(lp614
F0.0888919664450731
aF0.034446634209595844
aF-0.07032495501709016
aF0.37476188540524014
aF0.6213644886342716
aF0.6703149777195387
aF0.15536258287191854
aa(lp615
F0.0891316707271477
aF0.03569357059262648
aF-0.06947084839747567
aF0.37511291383565126
aF0.6207281040210367
aF0.6704936292919751
aF0.1562856865840619
aa(lp616
F0.08946363956045089
aF0.03740287334912509
aF-0.0684149576015109
aF0.37552258149742546
aF0.6201538071497891
aF0.6704413150150046
aF0.15779888904578224
aa(lp617
F0.08986434586144587
aF0.03889853095603124
aF-0.06748463994346175
aF0.37598090784275195
aF0.6196042742029089
aF0.6703631586501051
aF0.15919213501891574
aa(lp618
F0.09039363288277777
aF0.041460038528032844
aF-0.06585161521466243
aF0.37661762207198346
aF0.6187880668919294
aF0.6702560647542749
aF0.1612987993666003
aa(lp619
F0.0906108443436939
aF0.0425522065825876
aF-0.06516083880189597
aF0.3769071799777715
aF0.6183028743373806
aF0.6703001062234384
aF0.16229695272612027
aa(lp620
F0.0909799340510083
aF0.044397632066742826
aF-0.06397192204584413
aF0.37738780670859434
aF0.6175663151389011
aF0.6703154628633107
aF0.16391299521325797
aa(lp621
F0.09122787046541014
aF0.045254067782905
aF-0.06342248672711824
aF0.3775256326294876
aF0.61739869374291
aF0.6703206280109205
aF0.16420567997270566
aa(lp622
F0.0915840949165019
aF0.046613513868232426
aF-0.06244347285324352
aF0.37777039306715027
aF0.6170517739200349
aF0.6704506650928365
aF0.16441576597334592
aa(lp623
F0.09174856564325182
aF0.04721416865061581
aF-0.06200762117928689
aF0.37786976123493166
aF0.6168743940153131
aF0.6705384867862972
aF0.16449487314454236
aa(lp624
F0.09184435656721729
aF0.047717239763284375
aF-0.0615849535215449
aF0.3779420471881847
aF0.6166242849458919
aF0.6707016038942475
aF0.16460151492576175
aa(lp625
F0.09244579537102421
aF0.050748365296122616
aF-0.059248028540319436
aF0.3789248705881011
aF0.6159892424903973
aF0.6703848185884168
aF0.16600418847749815
aa(lp626
F0.09266844522012263
aF0.05204149795375962
aF-0.058250590096473626
aF0.3793437924587637
aF0.6155834798123954
aF0.6703542936059049
aF0.1666744957970264
aa(lp627
F0.09304777481900861
aF0.054227862417104505
aF-0.056533980700281386
aF0.38004907951402284
aF0.6149844965798694
aF0.6702430784850248
aF0.16772293185448908
aa(lp628
F0.0932034983663316
aF0.05516046711242978
aF-0.05580747725624981
aF0.3803595589994514
aF0.6145964390960416
aF0.6702864304551756
aF0.16826741834314632
aa(lp629
F0.0934668602315332
aF0.056737325899411245
aF-0.05455609491758201
aF0.38089793890858137
aF0.6140431070339377
aF0.6702743943622175
aF0.16911551999052413
aa(lp630
F0.09357546163458666
aF0.0574143434753403
aF-0.05402600941041043
aF0.38114113062726235
aF0.6137065878535908
aF0.6703290913991156
aF0.16957173052520028
aa(lp631
F0.09367423708930081
aF0.05804107111039858
aF-0.05354097424009603
aF0.38137085142300703
aF0.613357769110773
aF0.6703832651827921
aF0.17010231779492255
aa(lp632
F0.09374056366543992
aF0.05861013394418754
aF-0.05310051400168238
aF0.3815622990533507
aF0.6130234631493149
aF0.670456161649026
aF0.17059009606772937
aa(lp633
F0.09383351499495385
aF0.05909597016715551
aF-0.052719207910592564
aF0.3817746109776008
aF0.6127180889871848
aF0.6705094946096457
aF0.1710020686398589
aa(lp634
F0.09428243714934526
aF0.06196432332345145
aF-0.05000651820081685
aF0.38292027213523955
aF0.6123473370221081
aF0.6701628538931632
aF0.1711273014208359
aa(lp635
F0.09444944922199
aF0.06318937712776276
aF-0.04884828835399817
aF0.3834035860584649
aF0.6120564362410978
aF0.6701192520338723
aF0.1712565242754844
aa(lp636
F0.09473511483385505
aF0.06526129364273661
aF-0.04685605547659345
aF0.384229260924618
aF0.6116552325826345
aF0.66998009432466
aF0.1713838519590602
aa(lp637
F0.09485250292020542
aF0.06614570160380889
aF-0.04600987281206394
aF0.3845939827875634
aF0.6113745153163501
aF0.6699889454892604
aF0.17153274715775332
aa(lp638
F0.09496097167628131
aF0.06695849571576962
aF-0.04523999018277479
aF0.3849323193973068
aF0.6110821800044232
aF0.6699970771426957
aF0.17178357134690178
aa(lp639
F0.09501231502519308
aF0.06767601267059867
aF-0.044537193958996885
aF0.3852108412316763
aF0.6108018391360356
aF0.6700451134790094
aF0.17196879661299747
aa(lp640
F0.09511001102063665
aF0.0682964056197169
aF-0.04392448861981771
aF0.3855149196570781
aF0.6105787012528332
aF0.6700360087496465
aF0.17211520350347803
aa(lp641
F0.09516227127747534
aF0.06887973399111558
aF-0.04335435363983259
aF0.38575156914710795
aF0.6103728574053925
aF0.67005190352336
aF0.17225315215705797
aa(lp642
F0.09524320830759272
aF0.06938044397100498
aF-0.04285708995110128
aF0.3860034713012252
aF0.6101953998008603
aF0.6700408524377768
aF0.17236052410494185
aa(lp643
F0.09544567625800507
aF0.07200207431378194
aF-0.03974993592789204
aF0.38383715547149344
aF0.6106866981839861
aF0.6713519700897029
aF0.1703447298784684
aa(lp644
F0.09529316338718155
aF0.07307419752826222
aF-0.03811701515273111
aF0.3816949115222757
aF0.6102960013577956
aF0.6732160885703098
aF0.16919776397689282
aa(lp645
F0.0957951883664459
aF0.07522375045415608
aF-0.03630565000348698
aF0.38240945318462416
aF0.6099528102831996
aF0.6731600469985578
aF0.16904475876986902
aa(lp646
F0.09602824946810579
aF0.07616596790600302
aF-0.03554067211135048
aF0.38273465486838126
aF0.6096803860179527
aF0.6732069551783783
aF0.16910472012110858
aa(lp647
F0.09628599598122117
aF0.07707757617650812
aF-0.034827074657544047
aF0.38308398182882525
aF0.6093822700560155
aF0.6732406070503759
aF0.1692542372467864
aa(lp648
F0.09647459232599029
aF0.07788089992116817
aF-0.03418071744190197
aF0.38338325799298706
aF0.6090908672971537
aF0.67329756741344
aF0.16939887420236335
aa(lp649
F0.09661155015662698
aF0.0785269507146171
aF-0.03361387769121767
aF0.38367296850371907
aF0.6088255370853792
aF0.673353359655447
aF0.16947498834036162
aa(lp650
F0.09664959331074624
aF0.0790544706055567
aF-0.03307356259276756
aF0.38391911499266335
aF0.6085619884891846
aF0.673445249727151
aF0.16949901158790004
aa(lp651
F0.0966942009946401
aF0.07949405383603025
aF-0.032601922229996805
aF0.38416353408600856
aF0.6083493768212231
aF0.6734963680653059
aF0.16950533030739556
aa(lp652
F0.0969294216734822
aF0.08170154439498484
aF-0.03034520268335894
aF0.3848920922578184
aF0.6080812326072815
aF0.6734411084766523
aF0.16903362175006995
aa(lp653
F0.09700475984006812
aF0.0826399116106242
aF-0.029374997581783177
aF0.3852074985867806
aF0.6078677595805321
aF0.67349817268953
aF0.16885550414163
aa(lp654
F0.09707263553919046
aF0.08349288952220166
aF-0.028490793687762028
aF0.38552317991289375
aF0.6076110098355617
aF0.6735763729216223
aF0.16874717277101614
aa(lp655
F0.0971079407623178
aF0.0842630819349634
aF-0.02769227151468684
aF0.3857791118338629
aF0.6073610714372185
aF0.6736827382052942
aF0.16863740397529575
aa(lp656
F0.09718253357913162
aF0.08493093407594582
aF-0.026995776660096824
aF0.38605024587143816
aF0.6071398540094447
aF0.6737454925198357
aF0.16856279733439458
aa(lp657
F0.09721044984572305
aF0.08555169009416261
aF-0.026351752149703186
aF0.38627171743932687
aF0.606900349279655
aF0.673849480527562
aF0.16850223720604066
aa(lp658
F0.09726579536585955
aF0.08608873801267022
aF-0.02578822341558666
aF0.38650471180192675
aF0.6066892629185648
aF0.6739171374790323
aF0.1684575252884391
aa(lp659
F0.09733255012627834
aF0.08700417600660623
aF-0.0248337592084715
aF0.38684490952580924
aF0.606391812567161
aF0.6740206343841726
aF0.1683335083987718
aa(lp660
F0.0973547398249589
aF0.08739519454341696
aF-0.024422259829490076
aF0.38701263380479034
aF0.6061963861821734
aF0.6741052684685551
aF0.16831295160530488
aa(lp661
F0.09745529116353085
aF0.08844742775140899
aF-0.023357843042287746
aF0.3873518854227881
aF0.605938421471712
aF0.6741853014901277
aF0.168140790703645
aa(lp662
F0.09748922641403165
aF0.08940480129195705
aF-0.022389743993877567
aF0.38759160433526707
aF0.6057007636679431
aF0.6743110373010217
aF0.16794034093958668
aa(lp663
F0.09757597400566642
aF0.09023593325009102
aF-0.021548210202945672
aF0.38785538967326305
aF0.6054758512625553
aF0.6743946974859479
aF0.16780638319838215
aa(lp664
F0.09767695459708847
aF0.0916612659628516
aF-0.020109567010447055
aF0.38821746124199447
aF0.6051751869405315
aF0.6745317294445388
aF0.16750266227995544
aa(lp665
F0.09771295565242277
aF0.09226670800363765
aF-0.01949413167702288
aF0.3883895452651148
aF0.6049695917025885
aF0.6746414320012425
aF0.16740457721123844
aa(lp666
F0.09778044912656372
aF0.09329606109270247
aF-0.01845026627681702
aF0.3886756033206311
aF0.6046758733124505
aF0.6747853693769132
aF0.1672216161027985
aa(lp667
F0.09780366745253416
aF0.0937354835508083
aF-0.018001050632766247
aF0.3888195046879947
aF0.6044828717304713
aF0.6748876817946001
aF0.16717196990098454
aa(lp668
F0.09782450253068939
aF0.09414261220096554
aF-0.017580352129678817
aF0.3889900338377729
aF0.6042568127064762
aF0.6749956718353375
aF0.16715651610469745
aa(lp669
F0.09783237332926659
aF0.0945110437344569
aF-0.017200127467248597
aF0.38913627615002067
aF0.604037792636575
aF0.6751110390818761
aF0.1671418216982775
aa(lp670
F0.09791944631479238
aF0.09546506781211056
aF-0.01625655184894806
aF0.3893820125532131
aF0.6038138093669981
aF0.6752141074913844
aF0.16696239385663178
aa(lp671
F0.09801596791273237
aF0.09710164970843368
aF-0.014643784628189008
aF0.3896909397206368
aF0.6035123604146965
aF0.6754001012999615
aF0.16657882665672247
aa(lp672
F0.09805021727384888
aF0.09779660630525666
aF-0.013954413620116318
aF0.3898380521701713
aF0.6032977572588092
aF0.6755405452616775
aF0.1664424251031361
aa(lp673
F0.09808336741621412
aF0.09843251765324881
aF-0.013320991357622616
aF0.3900084762452395
aF0.6030605007862496
aF0.6756768428665276
aF0.16634970652882444
aa(lp674
F0.09809700121473258
aF0.09900819995231505
aF-0.01274908523627162
aF0.39014456074181825
aF0.6028339912805877
aF0.6758221991876503
aF0.16626110719425025
aa(lp675
F0.09813480234603578
aF0.09950620972824264
aF-0.012252422705234231
aF0.3902944059529684
aF0.6026329877091929
aF0.6759304549264202
aF0.16619801114776814
aa(lp676
F0.09814392514462716
aF0.09997195698987929
aF-0.011787161598329182
aF0.3904253949511842
aF0.6024145178961374
aF0.676064093540164
aF0.16613880049793542
aa(lp677
F0.0981708424421138
aF0.10037176158054864
aF-0.01138776627111976
aF0.3905591960894067
aF0.6022238997760467
aF0.6761665842996772
aF0.16609828164383228
aa(lp678
F0.0981955615937953
aF0.10105043393556984
aF-0.010715771381698325
aF0.3907326703047675
aF0.6019456549898725
aF0.6763395551126421
aF0.16599462336278617
aa(lp679
F0.09823207492100364
aF0.10196984580355326
aF-0.009824348678717454
aF0.39091691236138937
aF0.6016991907563739
aF0.6765020163797845
aF0.16579225949075085
aa(lp680
F0.09829584601505362
aF0.10277349218486936
aF-0.009047432189924681
aF0.3911013225327132
aF0.601470512981538
aF0.6766369619220038
aF0.16563634651805503
aa(lp681
F0.09830845043460792
aF0.10351758539923539
aF-0.008327149476887383
aF0.3912349524318995
aF0.601229730186551
aF0.6768159753396916
aF0.16546346744945983
aa(lp682
F0.09835723133868951
aF0.10416426755236144
aF-0.007702531704796345
aF0.3913897246605748
aF0.6010065241594319
aF0.6769545072829508
aF0.16534157498105242
aa(lp683
F0.0984075755963438
aF0.10527179177483506
aF-0.006637769720605015
aF0.3915854604253659
aF0.600703129853398
aF0.67717298361504
aF0.16508581777272946
aa(lp684
F0.09842641883786782
aF0.10574324385821504
aF-0.006181501442779118
aF0.39169919212220905
aF0.6005079912496135
aF0.6773043700803504
aF0.1649869255614601
aa(lp685
F0.09846089279837555
aF0.10654242827619545
aF-0.005410483962251751
aF0.3918799192909006
aF0.6002169595051821
aF0.6775024977235179
aF0.16480320372282367
aa(lp686
F0.09847374441836415
aF0.10688364897562638
aF-0.005078093762115064
aF0.3919877618230397
aF0.6000328893309217
aF0.6776201146064482
aF0.16473344099755088
aa(lp687
F0.09848723845484933
aF0.10720141410205195
aF-0.004763296436377282
aF0.3921286664448637
aF0.5998220471084167
aF0.6777383677909107
aF0.1646794631365833
aa(lp688
F0.09857954253938422
aF0.10884072602190797
aF-0.0032182217687972
aF0.39237222442277064
aF0.5994862473677266
aF0.6779941254404207
aF0.16426881197222779
aa(lp689
F0.09860802198283639
aF0.10953209358057794
aF-0.0025580967374995503
aF0.3925012112712069
aF0.5992662159548277
aF0.678166758621044
aF0.16405075149856413
aa(lp690
F0.09866519022769119
aF0.11072031594678261
aF-0.0014390463736378215
aF0.39269803751970994
aF0.5989525500618739
aF0.6784109641271489
aF0.1637151729517447
aa(lp691
F0.09869075746890002
aF0.11122446890128501
aF-0.0009598371336453984
aF0.39281312999019175
aF0.5987551601260662
aF0.6785556159819645
aF0.1635615454471318
aa(lp692
F0.09887135490793808
aF0.1118400933392853
aF-0.00047876866559372344
aF0.39289510491955965
aF0.5986143967811098
aF0.6786979301564995
aF0.1632891916138952
aa(lp693
F0.09901041302060579
aF0.11238331406648341
aF-2.9274188012136382e-05
aF0.39295078061613553
aF0.5984697719267456
aF0.6788608112391541
aF0.16300802148003818
aa(lp694
F0.09911026147774188
aF0.11281035670948142
aF0.0003348501156507852
aF0.39300107029104014
aF0.5983370176409056
aF0.6790012659433541
aF0.162788982790623
aa(lp695
F0.09921153089686954
aF0.11323377043047736
aF0.000696487455075237
aF0.39304015390742425
aF0.5982017870581545
aF0.6791607306013581
aF0.16252618676966568
aa(lp696
F0.0992852455473491
aF0.11356646763147396
aF0.000984042723404431
aF0.3930728907095299
aF0.5980780865589262
aF0.6792999599143957
aF0.16232026807385558
aa(lp697
F0.09915679509330846
aF0.11515406438260214
aF0.003125770999078993
aF0.392303277533546
aF0.5990170714791317
aF0.6795847597051687
aF0.1595031062063383
aa(lp698
F0.09926760858795636
aF0.11589435114508342
aF0.003731754256594097
aF0.3922906119497108
aF0.5988707460463568
aF0.6798009671494297
aF0.15916202552336783
aa(lp699
F0.09940605763025084
aF0.1165920868025
aF0.004330335820445813
aF0.39230315416169786
aF0.5987292112188308
aF0.6800208575605051
aF0.1587236597068473
aa(lp700
F0.09940371402753617
aF0.11712201522824339
aF0.00485943517815033
aF0.39232032449305054
aF0.5985448316038888
aF0.6802438270868191
aF0.15842090537620898
aa(lp701
F0.09938526603287157
aF0.11754363545532842
aF0.005286969012558325
aF0.3924199223455681
aF0.5983601483115618
aF0.6803796609561018
aF0.15828851637476393
aa(lp702
F0.09933510974894788
aF0.11792605121356242
aF0.005685780330990882
aF0.3925043659214632
aF0.5981741472925655
aF0.680530576113559
aF0.15813332102358976
aa(lp703
F0.09932876840163335
aF0.11827406182120066
aF0.006032835110552456
aF0.39259620627616804
aF0.5980073730966238
aF0.6806537124318178
aF0.15800608941563046
aa(lp704
F0.09931098775815053
aF0.11888474618626749
aF0.006620537291824276
aF0.3927116372219998
aF0.5977462034305238
aF0.6808666009863681
aF0.15779010721867495
aa(lp705
F0.0993011513978736
aF0.11914106705998387
aF0.006875329962926911
aF0.392775754101544
aF0.5975994282271184
aF0.6809861178859611
aF0.15767066188480403
aa(lp706
F0.09937884891888832
aF0.12001045461401176
aF0.0076300974542241745
aF0.39293622109854415
aF0.5973665359091964
aF0.6811297050296722
aF0.157533084940386
aa(lp707
F0.09950795903225018
aF0.12088732961171528
aF0.008363980449527582
aF0.3929722485174577
aF0.5971956786239626
aF0.6813369010963737
aF0.15719465809113456
aa(lp708
F0.0994262558781403
aF0.12164409344949188
aF0.00951612433478307
aF0.3922892528116807
aF0.5977916640882238
aF0.6816313164291768
aF0.15534805096335438
aa(lp709
F0.09960962450483438
aF0.12285110637674018
aF0.010510333441391392
aF0.392379428580133
aF0.5976023635467147
aF0.6818980384794754
aF0.15467664409455126
aa(lp710
F0.09971010719518936
aF0.12337847599585439
aF0.010943274622890659
aF0.3924370025953494
aF0.5974772954357338
aF0.6820515705892977
aF0.15433643603974675
aa(lp711
F0.09975487563117078
aF0.12416578861642794
aF0.01166305770689162
aF0.39254261183037475
aF0.597242204019412
aF0.6822932520178164
aF0.15390895323656592
aa(lp712
F0.09973874359337104
aF0.1244704134396948
aF0.011965002583098211
aF0.39262756574759466
aF0.5970841726973051
aF0.6824145238554532
aF0.15376769153703393
aa(lp713
F0.09972367789353964
aF0.12474092458416625
aF0.012249063596445654
aF0.39275448335587354
aF0.596918571348765
aF0.6825252942572867
aF0.15359478403192747
aa(lp714
F0.09973971539568122
aF0.12502704159131256
aF0.012509443650676043
aF0.3928601381186537
aF0.5967782223439477
aF0.6826232722583576
aF0.15343445957372892
aa(lp715
F0.09986358849771076
aF0.12589066130316753
aF0.013242159439085958
aF0.3929730055176299
aF0.5966403134163387
aF0.6827520234262839
aF0.1531085492329171
aa(lp716
F0.09983189413016205
aF0.12736514229376567
aF0.015041265949975124
aF0.39246692806815003
aF0.5970808680256157
aF0.6831375731774141
aF0.1509543093912874
aa(lp717
F0.0999316544796921
aF0.12800706542101725
aF0.015559263886957823
aF0.39252713379064347
aF0.5969592046438955
aF0.6832851104692561
aF0.15061080651814526
aa(lp718
F0.1000853261224576
aF0.12907386067636573
aF0.016449085909952456
aF0.3925953478820368
aF0.5967577002388835
aF0.6835500357526946
aF0.1500282928299571
aa(lp719
F0.10013218998465978
aF0.12950020083275932
aF0.01683143080238335
aF0.3926549031674731
aF0.5966230191038306
aF0.6836975571934585
aF0.1497356015838247
aa(lp720
F0.10011447804207485
aF0.12983708393571836
aF0.01717328947415734
aF0.39276714124893264
aF0.5964559585400696
aF0.6838183579624626
aF0.1495550587265741
aa(lp721
F0.10009768628999252
aF0.13014770354515193
aF0.01748579819140661
aF0.39287019335832224
aF0.5962919514589308
aF0.6839418657580086
aF0.14937350521209827
aa(lp722
F0.10010076563325379
aF0.13042609544434475
aF0.017749494199727378
aF0.3929634429546136
aF0.5961403694054573
aF0.6840467415014552
aF0.14925296616021597
aa(lp723
F0.10009455289371005
aF0.13068117619617814
aF0.018003515723745533
aF0.3930725939255949
aF0.5959821982827073
aF0.6841581715344291
aF0.1490863895779312
aa(lp724
F0.10015856488258604
aF0.1315089139874726
aF0.018709333415822982
aF0.39318769301813783
aF0.5958081703145253
aF0.6842737433684445
aF0.14894799891931623
aa(lp725
F0.10012875193063053
aF0.13299178683638774
aF0.020488385266112664
aF0.3926851446156896
aF0.596207903945649
aF0.6846557899335249
aF0.1469046009537875
aa(lp726
F0.10023369560402934
aF0.13369030879431773
aF0.02098477351056858
aF0.3927402564582733
aF0.5960603489804925
aF0.6847958035522187
aF0.14670330182928462
aa(lp727
F0.10038276645740038
aF0.134755755858753
aF0.0218625402413153
aF0.3927959256585813
aF0.5958593663322208
aF0.6850537306612174
aF0.14616553098227492
aa(lp728
F0.10043096412535857
aF0.13518437527232424
aF0.022239008651261626
aF0.39284817082414925
aF0.5957272262185737
aF0.6851968977049893
aF0.14589241925988783
aa(lp729
F0.10042481967739644
aF0.13586105255944764
aF0.022856585636914464
aF0.3929437019697044
aF0.5954782428088861
aF0.6854055289522238
aF0.14567144643102875
aa(lp730
F0.1004205615428897
aF0.13614298444797301
aF0.02312194069266621
aF0.3930157490038631
aF0.5953319207804125
aF0.6855168457050088
aF0.1455512947022181
aa(lp731
F0.10043918889930761
aF0.13642714342372203
aF0.02337399020675864
aF0.3931116260032566
aF0.5951975135248372
aF0.6856034091811871
aF0.14543429689746726
aa(lp732
F0.10051571185919131
aF0.13673830210743204
aF0.02361930267485796
aF0.3931769866890099
aF0.5951007452734962
aF0.6856968529306497
aF0.14521289885572342
aa(lp733
F0.10061478431563967
aF0.1375552839408402
aF0.024299996644060833
aF0.39325761620405086
aF0.5949666823013156
aF0.685822883847153
aF0.14494849512998562
aa(lp734
F0.10045582974499029
aF0.13888039737623098
aF0.02602562413528384
aF0.3925550589073707
aF0.5956826638176794
aF0.6860992913814752
aF0.1425848944283431
aa(lp735
F0.1005643873612358
aF0.13954804603172344
aF0.026485155783551748
aF0.39258697760272465
aF0.5955415460327829
aF0.6862441923246511
aF0.1423890461599056
aa(lp736
F0.1006986866247182
aF0.1406172628771124
aF0.02730826461836551
aF0.39263093312164565
aF0.5953225930892793
aF0.6864884018036564
aF0.14200575587821748
aa(lp737
F0.10074377990088551
aF0.14103640443159793
aF0.02766671587867427
aF0.39267644808787655
aF0.5951925316456687
aF0.6866247184277103
aF0.14176584015331897
aa(lp738
F0.10074262094054065
aF0.14137816142197016
aF0.02798863516216327
aF0.3927710235893522
aF0.5950336123794262
aF0.6867404969092399
aF0.14161007404882467
aa(lp739
F0.10074027447040221
aF0.1416911288206369
aF0.02828227138949843
aF0.39285688366945415
aF0.5948790556336603
aF0.6868579266595075
aF0.14145164087748244
aa(lp740
F0.10076172711813136
aF0.14197987026813436
aF0.02852910953193136
aF0.39293262183518046
aF0.5947381528912331
aF0.686957673963115
aF0.14134934869479177
aa(lp741
F0.1007791347092557
aF0.14224862186912565
aF0.028766729369387043
aF0.3930239691604888
aF0.5945900484736807
aF0.6870638818878462
aF0.14120218173457777
aa(lp742
F0.10083397289465915
aF0.14304495535732947
aF0.029440869598327667
aF0.39310745664038627
aF0.5943896579320426
aF0.6872242668899864
aF0.14103286522891595
aa(lp743
F0.10096691574671571
aF0.14447213534440784
aF0.030616911315468693
aF0.3931515320660074
aF0.5941798458471395
aF0.6874744410880408
aF0.14057409602735096
aa(lp744
F0.10103285364408382
aF0.1450867389227096
aF0.031123775296075212
aF0.3931886176883237
aF0.5940601005540541
aF0.6876026323947702
aF0.14034930628198702
aa(lp745
F0.10092670010796234
aF0.14565953846164809
aF0.03201667324738446
aF0.3926750801466818
aF0.594513450606787
aF0.6878224039667503
aF0.13878176782563756
aa(lp746
F0.10101698543508575
aF0.14622309168046885
aF0.0324146941569519
aF0.39272290757964035
aF0.594399235742065
aF0.6879440969169287
aF0.13853225591389765
aa(lp747
F0.10108727243917565
aF0.14667456425984982
aF0.03277008814780548
aF0.3927676262426165
aF0.5942841489144945
aF0.6880618871516012
aF0.13831406860508563
aa(lp748
F0.10115169918667252
aF0.14709617091168953
aF0.03310862587764304
aF0.39281260511386284
aF0.5941768962060704
aF0.6881860719268523
aF0.13802899581055508
aa(lp749
F0.10120559697661421
aF0.1474548291510746
aF0.03339314040889896
aF0.39285612319307106
aF0.5940736615975667
aF0.6882918451603671
aF0.13782193929671566
aa(lp750
F0.10122367342897451
aF0.14800998658412506
aF0.03387007269209608
aF0.3929116304380687
aF0.5938774201547448
aF0.6884809210670018
aF0.13756482771252393
aa(lp751
F0.10124518299970109
aF0.14883179963829252
aF0.03457399482262614
aF0.39298031057712113
aF0.5937060635991198
aF0.6886141802659805
aF0.13744124665091859
aa(lp752
F0.10131746304352193
aF0.1495794216546704
aF0.035190032872952595
aF0.39303803441779084
aF0.5935756370132461
aF0.688732374886532
aF0.13724715817996494
aa(lp753
F0.10116809373394212
aF0.15032132464917208
aF0.03629932946976397
aF0.3925287813518613
aF0.5939900761273043
aF0.6889751487453804
aF0.13568415413740514
aa(lp754
F0.10124595669059183
aF0.15097616080945786
aF0.03677602808753728
aF0.39256849532115434
aF0.5938452317848552
aF0.6891042278689818
aF0.13554770488935303
aa(lp755
F0.1013359862431899
aF0.15202610535144828
aF0.03761568456934261
aF0.39258549851867613
aF0.5936513726789843
aF0.6893363687845492
aF0.13516672941272342
aa(lp756
F0.10136656303015168
aF0.15245777586374215
aF0.037975943563980416
aF0.392615893843759
aF0.5935268042630982
aF0.6894650808697071
aF0.13496886597963445
aa(lp757
F0.10137967191489838
aF0.15316603878536106
aF0.038572197339914745
aF0.3926600136867088
aF0.5933197080330619
aF0.6896462118827967
aF0.1348255915871484
aa(lp758
F0.10141077824099085
aF0.15349143030493456
aF0.038834752130594785
aF0.3926873025678142
aF0.5932231640027913
aF0.6897434112509386
aF0.13467363041237862
aa(lp759
F0.10145864514910088
aF0.15403729565501584
aF0.039271493144076706
aF0.3927240005866683
aF0.5930658449568591
aF0.6899101050534887
aF0.1344053936934593
aa(lp760
F0.10151037731011897
aF0.15486415642374055
aF0.039956695656891875
aF0.3927641537817714
aF0.5929330027130933
aF0.6900467034412339
aF0.13417272773410283
aa(lp761
F0.10134485339033361
aF0.1556429296028028
aF0.04113735620751689
aF0.39227801245087024
aF0.593308104811646
aF0.6902792968370545
aF0.13273261117958013
aa(lp762
F0.10145304094313667
aF0.1569033764296216
aF0.04210659835278879
aF0.3915177908837094
aF0.5930020658007197
aF0.69101749694924
aF0.13250354066071662
aa(lp763
F0.10149972100177396
aF0.15744916174009985
aF0.04252495235193281
aF0.3910787606098982
aF0.592799721045836
aF0.6914570364599141
aF0.13241246337818022
aa(lp764
F0.10146968190975131
aF0.1583690367059005
aF0.04354091950628486
aF0.3910747703374135
aF0.5928991721174184
aF0.6913881591461366
aF0.13233861530383279
aa(lp765
F0.10129426968838198
aF0.1586699755108083
aF0.04414902275579494
aF0.3917667955416496
aF0.5935263692249069
aF0.690466780421976
aF0.1322907860715855
aa(lp766
F0.10126564669167346
aF0.15907380156325698
aF0.04466209019073007
aF0.39364223144259985
aF0.5929546058333153
aF0.6894748777894136
aF0.13444337820518143
aa(lp767
F0.10151205251333845
aF0.15963213901867118
aF0.04491714271807466
aF0.39335879979121846
aF0.5927273328803693
aF0.6898541067543343
aF0.1343297244749473
aa(lp768
F0.1016086705001564
aF0.1599764783780528
aF0.04514748956399092
aF0.3931086631764802
aF0.5925792773420311
aF0.6901661740246634
aF0.13411201002354264
aa(lp769
F0.10174738731308702
aF0.16158254247435555
aF0.0464364775113158
aF0.39263900928842677
aF0.5922644040077969
aF0.6907933288641094
aF0.1336490214222846
aa(lp770
F0.1015687896008256
aF0.16230437872528425
aF0.04753031312502709
aF0.3921213333414876
aF0.5926508112124228
aF0.6910333011888105
aF0.13220761156546865
aa(lp771
F0.10137087125042019
aF0.1633532672992669
aF0.04891011596252208
aF0.39240060211890276
aF0.5936431462509697
aF0.6902840474355157
aF0.13083392611251463
aa(lp772
F0.10144334403500532
aF0.16388417191619417
aF0.04926667325075348
aF0.3920057904827866
aF0.5934663309497304
aF0.6906669479278529
aF0.13079885816418674
aa(lp773
F0.10151778612910073
aF0.16438089764055272
aF0.04961422108070054
aF0.3915620289436042
aF0.5932350798202619
aF0.6911331242646958
aF0.130714659102704
aa(lp774
F0.10155366242269176
aF0.16480570359044605
aF0.04993491264410205
aF0.3910979170174439
aF0.5929905850354921
aF0.6916214680942979
aF0.13063051035255688
aa(lp775
F0.10158847578160207
aF0.1651660029377257
aF0.05019531345313655
aF0.39068100840341186
aF0.5928066781985155
aF0.6920215272189325
aF0.13059401908859092
aa(lp776
F0.10160944156610321
aF0.1655036912642936
aF0.050454356477926975
aF0.39019436775337407
aF0.5925627191983738
aF0.6925213577897025
aF0.13050650633160366
aa(lp777
F0.1016416759876074
aF0.16579476681548355
aF0.0506590448532671
aF0.3897469682068264
aF0.5923846855621421
aF0.6929383501739529
aF0.13043821504156333
aa(lp778
F0.10157826563534036
aF0.16745632142334105
aF0.05249067164960779
aF0.38975414013822113
aF0.5925464275103254
aF0.6927846165477524
aF0.1304987224636725
aa(lp779
F0.10136606889453337
aF0.16812220367530717
aF0.05357288090706663
aF0.39045497948264796
aF0.5931577981146808
aF0.6918799934520099
aF0.13042549671669018
aa(lp780
F0.10122797988432011
aF0.16924454364972802
aF0.054937756218224366
aF0.3909149841076848
aF0.5937266611761841
aF0.6911834660278169
aF0.1301520007469846
aa(lp781
F0.10132052159974878
aF0.16980163680758548
aF0.055302664108534745
aF0.3905132753230558
aF0.5935594324802973
aF0.691562926706414
aF0.1301049588424106
aa(lp782
F0.10142224354525786
aF0.17033057917084612
aF0.05564552984465373
aF0.3900505193788465
aF0.5933335906691452
aF0.6920327247058663
aF0.13002519160580417
aa(lp783
F0.10150074239498993
aF0.1708018685678762
aF0.05596742205657012
aF0.3895688932210991
aF0.5931141124345861
aF0.6925133361886687
aF0.12991153246059758
aa(lp784
F0.10156605099791294
aF0.17119494807437052
aF0.05623102017004356
aF0.38913607545357726
aF0.592952878886058
aF0.6929089081242163
aF0.12983544679104403
aa(lp785
F0.10162552525411345
aF0.1715709524212203
aF0.05649656542143779
aF0.3886287666404908
aF0.5927457938604791
aF0.6933992016113576
aF0.12968289326250104
aa(lp786
F0.10167905847690176
aF0.1718843391698831
aF0.056704895511384176
aF0.3881667212685403
aF0.5925931861032672
aF0.6938088188255018
aF0.12957328121017764
aa(lp787
F0.1016357523529029
aF0.17357659033735945
aF0.05853583509122852
aF0.3880904934297562
aF0.5927872567294495
aF0.6936901921513468
aF0.12954904276624138
aa(lp788
F0.10143077670098694
aF0.17425559596841397
aF0.059614314184881424
aF0.38878965643375557
aF0.5934065470210867
aF0.6927795776557036
aF0.12949026907771233
aa(lp789
F0.10119711450611482
aF0.17490886673020156
aF0.06068708823210403
aF0.38976372160063566
aF0.5942952752798597
aF0.6913617549520013
aF0.130062642191165
aa(lp790
F0.10129976112482744
aF0.17556653126643484
aF0.06112543422929457
aF0.3893103114278597
aF0.5940858827882826
aF0.6918061666210553
aF0.13001412658896205
aa(lp791
F0.10137728832227907
aF0.1761026233002332
aF0.061487230317665585
aF0.3889143814150374
aF0.5939123454205615
aF0.6921795031718194
aF0.13000486634899472
aa(lp792
F0.10105896111931656
aF0.17652505844442265
aF0.06243688338391083
aF0.3917047257688852
aF0.5933785583231652
aF0.6904146434023759
aF0.1334050767707686
aa(lp793
F0.10120757616181125
aF0.17703696841484629
aF0.06273045925801378
aF0.3914270283284137
aF0.5933431122904761
aF0.690650033503637
aF0.13315916721301624
aa(lp794
F0.10136421301058712
aF0.17779598310020267
aF0.06325244413367423
aF0.3908712079579439
aF0.5933384692188783
aF0.6910616726780237
aF0.13267601248887545
aa(lp795
F0.10126687165125753
aF0.17805550653569183
aF0.06370303926481702
aF0.39098091472048396
aF0.5942237204082423
aF0.6904257974467223
aF0.13169780806292283
aa(lp796
F0.10143526142557913
aF0.179038004005301
aF0.06435034264993647
aF0.3910333061855221
aF0.5941016778203797
aF0.690505127585369
aF0.13167694803169988
aa(lp797
F0.10156176596862812
aF0.17991220160054477
aF0.0649572310839196
aF0.39103119641206224
aF0.593957347633003
aF0.6906567066430316
aF0.13153929524792501
aa(lp798
F0.10166262430404713
aF0.1806478185347643
aF0.06547417007769943
aF0.3910426413649199
aF0.5938212021383243
aF0.6907871840552462
aF0.13143477040100632
aa(lp799
F0.10176334220937552
aF0.18186633212625253
aF0.06636760429369655
aF0.3910364671035475
aF0.5935929480724244
aF0.6910029706039927
aF0.1313498687107129
aa(lp800
F0.10181163227170825
aF0.18238948790447496
aF0.06674615414441928
aF0.3910482241991977
aF0.5934633398780085
aF0.6911182953105366
aF0.13129376397434592
aa(lp801
F0.10188075323476417
aF0.18327038712486907
aF0.0673923538587425
aF0.391059237549069
aF0.593264618138436
aF0.691297881978019
aF0.13121358148187726
aa(lp802
F0.1019246088853348
aF0.18365688077173214
aF0.06767004393412177
aF0.39107581841268396
aF0.5931626715214311
aF0.6913934700918382
aF0.13112138986746175
aa(lp803
F0.10197565131973413
aF0.18401159006142453
aF0.06792528985705704
aF0.39112221970250693
aF0.593060456931323
aF0.6914786040671435
aF0.13099635031843077
aa(lp804
F0.10201436565366453
aF0.18432808276923024
aF0.06815828520298825
aF0.3911618097842361
aF0.5929623737375812
aF0.6915646393030066
aF0.13086791647885548
aa(lp805
F0.10181831284465384
aF0.1852828576666032
aF0.06950231872521662
aF0.390701678981631
aF0.5932686947326621
aF0.6917834344666853
aF0.12969245810229407
aa(lp806
F0.10193174893673163
aF0.18678442744953205
aF0.07064053313633559
aF0.39067724701486334
aF0.5930609045357776
aF0.6920116067577029
aF0.1294989895277759
aa(lp807
F0.10196480535944624
aF0.1874215222984384
aF0.07112199034755234
aF0.3906732048477967
aF0.592930650286973
aF0.6921217427493372
aF0.12951904947859538
aa(lp808
F0.10204291119168465
aF0.1885090005032189
aF0.07194799289014508
aF0.39065888221475575
aF0.5927441946116981
aF0.6923168020762553
aF0.12937311569160734
aa(lp809
F0.1018945256055207
aF0.18897708441957395
aF0.07265346832926928
aF0.3901772656792676
aF0.593091803328421
aF0.6924957386390564
aF0.1282710650865564
aa(lp810
F0.1019347189820147
aF0.18941003673304288
aF0.07296494111169124
aF0.3898421420065882
aF0.5929106772520099
aF0.692849857348848
aF0.12821508603888618
aa(lp811
F0.10196438503180794
aF0.189799720954405
aF0.07325910054709955
aF0.38947247001456936
aF0.5927253808352512
aF0.6932316705335354
aF0.12813145196922063
aa(lp812
F0.10199823663884858
aF0.1901367648538615
aF0.07350185902202427
aF0.38914019660119986
aF0.5925863627399814
aF0.6935459235048299
aF0.12808341841788598
aa(lp813
F0.1020192953409412
aF0.1904480368266185
aF0.07374201210127904
aF0.38875070849952786
aF0.592404037406051
aF0.6939395136880435
aF0.12797771074889114
aa(lp814
F0.1018678962297638
aF0.1914284050209339
aF0.07505481230885874
aF0.38942506984122954
aF0.5922231513718874
aF0.6935405735296133
aF0.12892372483960898
aa(lp815
F0.1016794009219516
aF0.19286843774493578
aF0.07677488061915838
aF0.38989228260048403
aF0.5927223064041964
aF0.6928770343936533
aF0.12878544432244873
aa(lp816
F0.10148855263912313
aF0.19350540959517631
aF0.07775255781989295
aF0.39052829552510776
aF0.5931994819468719
aF0.6920938616542702
aF0.12887246281769044
aa(lp817
F0.10162232182399714
aF0.1941779035502496
aF0.0781764490228293
aF0.39054810141921964
aF0.5930799483881998
aF0.6921922001111646
aF0.12883444183508877
aa(lp818
F0.10172263484785457
aF0.1947710066009094
aF0.07856858241286514
aF0.39055612006015294
aF0.5929578116556103
aF0.6923012825177288
aF0.12878619842381028
aa(lp819
F0.10179159999935442
aF0.19526617218365794
aF0.07890664559382111
aF0.3905704708919479
aF0.5928447713761524
aF0.6923926493354959
aF0.1287719047982625
aa(lp820
F0.10186138125827601
aF0.1957321960173574
aF0.07922449155792163
aF0.39058635114562346
aF0.5927313181426052
aF0.6924911213053684
aF0.12871648575420047
aa(lp821
F0.10192095812835208
aF0.19613369566616012
aF0.07949865632143835
aF0.39059624623600914
aF0.5926397070904497
aF0.6925745262092421
aF0.12865953385633208
aa(lp822
F0.10199657853067295
aF0.19680409219096845
aF0.07997150134671527
aF0.39058693708724623
aF0.5924965704723474
aF0.6927218226422001
aF0.12855401584773188
aa(lp823
F0.10179817234635738
aF0.19780790757662126
aF0.08134211757442579
aF0.3900855616673471
aF0.5927637743468384
aF0.6929813834327754
aF0.12744082790204123
aa(lp824
F0.10187244077728735
aF0.19861262201565943
aF0.08193004996787068
aF0.38977877173562486
aF0.5926083437881713
aF0.6932831131429894
aF0.1274613078846805
aa(lp825
F0.10174349532998644
aF0.19944696748162993
aF0.08301521794201061
aF0.3903996636575816
aF0.5924107464634437
aF0.6929429798702846
aF0.12832629013247016
aa(lp826
F0.10158257998452377
aF0.2001075374742759
aF0.0840029981874473
aF0.39052412582626483
aF0.5931754593647792
aF0.6923650637077479
aF0.12753195721849916
aa(lp827
F0.10171516865362507
aF0.20127082803898644
aF0.08481991259298627
aF0.3905170315406126
aF0.5930034889120065
aF0.6925254719112938
aF0.12748247318332023
aa(lp828
F0.10182251330560671
aF0.20221226551258825
aF0.08548018111227008
aF0.3904899687257338
aF0.5928334553115021
aF0.6926927883129016
aF0.1274471639829555
aa(lp829
F0.1018692504747731
aF0.20261497170771947
aF0.08575894166759351
aF0.3904889459289576
aF0.5927322830256169
aF0.6927819449241104
aF0.12743626074904363
aa(lp830
F0.10192609673707026
aF0.2029899882443326
aF0.08601433564229714
aF0.3905081604605421
aF0.5926315649288173
aF0.6928634373058227
aF0.12740275549808533
aa(lp831
F0.10203359105867105
aF0.2048001323639062
aF0.08735516645031811
aF0.39055919394932587
aF0.5925467980822469
aF0.6928373864032609
aF0.12778170489560833
aa(lp832
F0.10208145137869531
aF0.2055680387101111
aF0.08792845961423545
aF0.39052844247755863
aF0.5924195229867489
aF0.6929527525119423
aF0.12784024087245732
aa(lp833
F0.10217446696727314
aF0.2068587404414533
aF0.08890003036983789
aF0.3904816616162425
aF0.5922329591588409
aF0.6931435577471438
aF0.12781315417832834
aa(lp834
F0.10221403745282193
aF0.20741217552104171
aF0.0893133783377866
aF0.3904612066406451
aF0.5921349897998477
aF0.6932392057517093
aF0.1278108116405069
aa(lp835
F0.10206582495503022
aF0.20791656322168156
aF0.09005916133816874
aF0.39000032458501505
aF0.5924706405858806
aF0.6933969797294812
aF0.12680266310047497
aa(lp836
F0.1020946959090891
aF0.20836545303414947
aF0.09039423782892722
aF0.3897265929517852
aF0.5923319872092663
aF0.6936787926999135
aF0.1267506695576219
aa(lp837
F0.10212833759034945
aF0.20875929170597018
aF0.09068203116065413
aF0.3894837784066999
aF0.5922223722592433
aF0.6939117327597926
aF0.12673419148744808
aa(lp838
F0.10214865873273113
aF0.20911982937933193
aF0.09096051410227804
aF0.38919701262643736
aF0.5920815635849677
aF0.6942058032493942
aF0.12666258390029872
aa(lp839
F0.10217572688303733
aF0.2094359335280513
aF0.09119096734071155
aF0.38893960370785335
aF0.5919753799515177
aF0.694447235199014
aF0.12662610995872722
aa(lp840
F0.10197261451908704
aF0.21043477951592438
aF0.09256348910984878
aF0.3893725517413162
aF0.5921789487192723
aF0.6939823486318919
aF0.1268921133544422
aa(lp841
F0.1017552779145697
aF0.21130864694713783
aF0.09381964335528237
aF0.3899947516811732
aF0.5925956642390107
aF0.6932521768873725
aF0.12702712949281836
aa(lp842
F0.10184806771753838
aF0.21211276080649513
aF0.09435738559896326
aF0.3899607451854943
aF0.5925082399119597
aF0.6933098158786711
aF0.1272246126230652
aa(lp843
F0.1019268046443087
aF0.21283902856144263
aF0.09486862475553284
aF0.38993012995120907
aF0.5923901015117772
aF0.6934185646134101
aF0.12727590359756757
aa(lp844
F0.10196963206784496
aF0.2134953457006581
aF0.09532655035212045
aF0.38997231839331514
aF0.5924017886005032
aF0.6933294337126724
aF0.12757745920628993
aa(lp845
F0.10206500821008019
aF0.21454634327274852
aF0.09608485244142201
aF0.38992110001962055
aF0.5922500125319582
aF0.6934858454919107
aF0.12758855950967715
aa(lp846
F0.10211172461953508
aF0.21499706567915933
aF0.09640519338712336
aF0.38990075468952057
aF0.5921667108043515
aF0.6935724453163723
aF0.1275666539718189
aa(lp847
F0.1020203448454767
aF0.21573080193192987
aF0.09721735692972755
aF0.38942022507931734
aF0.5924623543585764
aF0.6937626249757478
aF0.12662411758360453
aa(lp848
F0.10205376290967014
aF0.21605542928725982
aF0.09744071120191646
aF0.38921227503723815
aF0.5923710522847856
aF0.6939595853388968
aF0.12661135530283096
aa(lp849
F0.10204403520158292
aF0.21705376891750056
aF0.09836571313289523
aF0.3889220255268985
aF0.5923478870844697
aF0.6941259813746107
aF0.12669948976753098
aa(lp850
F0.10158744154091487
aF0.2179985208765311
aF0.10019073013548757
aF0.3898427092394488
aF0.5931016531052035
aF0.6929341739049409
aF0.12686733926191823
aa(lp851
F0.10158837397378292
aF0.21889437629275293
aF0.10099515307634029
aF0.38990779355412813
aF0.5931048614691156
aF0.6928619213177782
aF0.12704681741503554
aa(lp852
F0.10173628382346364
aF0.2202299921194938
aF0.1019303920887967
aF0.3898458749276008
aF0.5929318789814969
aF0.6930272923900044
aF0.12714225376319443
aa(lp853
F0.10180407981140305
aF0.22080220953414814
aF0.10232712902554822
aF0.3898221949846474
aF0.5928246206866061
aF0.6931266136511272
aF0.12717359338185893
aa(lp854
F0.10189858683232328
aF0.22175301735182865
aF0.10300310626015682
aF0.3897874156984815
aF0.592667115682523
aF0.6932709689911396
aF0.1272274502839084
aa(lp855
F0.10194291941473518
aF0.22216247299914438
aF0.10328950268407733
aF0.3897757214961903
aF0.592578310464147
aF0.6933500426246105
aF0.12724602662571505
aa(lp856
F0.10199483475227492
aF0.22254178606723493
aF0.10355068697737393
aF0.38977790933465933
aF0.5924904098554665
aF0.6934233230212619
aF0.12724932500470904
aa(lp857
F0.1020327328248051
aF0.22287851384681454
aF0.10378934225232883
aF0.3897761772399105
aF0.5924046542099678
aF0.693498208096075
aF0.12724579637121095
aa(lp858
F0.10196537127207606
aF0.22394656273828534
aF0.10484312502469238
aF0.38980553982980115
aF0.592405222120853
aF0.6934486910522926
aF0.12742294455788486
aa(lp859
F0.10198489445530148
aF0.22559856107363097
aF0.10619854627348489
aF0.3897911803882917
aF0.5923389215755531
aF0.6934692095353082
aF0.12766320184253507
aa(lp860
F0.10198278200440689
aF0.2263323412740533
aF0.10677710723157512
aF0.3897995625365545
aF0.5923515333387228
aF0.6934103574769603
aF0.12789854628278136
aa(lp861
F0.10204882548973143
aF0.22746794747806287
aF0.10762424058279152
aF0.3897501742635571
aF0.5921826665816888
aF0.693561622592318
aF0.12801080707830198
aa(lp862
F0.10208131636117584
aF0.2279792461451315
aF0.10799215048386418
aF0.3897085050668917
aF0.5921365494648269
aF0.6935988717430068
aF0.12814910449646033
aa(lp863
F0.10211495627890735
aF0.22842056057690818
aF0.1083236898870345
aF0.3896916858854017
aF0.5920601957364675
aF0.6936724863503557
aF0.12815457953894868
aa(lp864
F0.10214045295561025
aF0.22881688775642553
aF0.10862487590445602
aF0.389669294280614
aF0.5919889416622963
aF0.6937461300828963
aF0.1281531936371775
aa(lp865
F0.10216862649760677
aF0.2291688558016573
aF0.10888211113498773
aF0.389653343788884
aF0.5919281327606705
aF0.6938044024807958
aF0.12816711129955916
aa(lp866
F0.10218842184436566
aF0.22948732506115282
aF0.10912615639028961
aF0.3896368081338284
aF0.5918645958188319
aF0.6938714903579416
aF0.12814762124964346
aa(lp867
F0.10197358232005135
aF0.23048932971960714
aF0.11050551365336965
aF0.389187742038122
aF0.5921785917162947
aF0.6940114905208654
aF0.12730069907577415
aa(lp868
F0.10196357575615239
aF0.23219893196572772
aF0.11212292738859084
aF0.3891713353343112
aF0.592115038765454
aF0.6940550617649861
aF0.12740888454223007
aa(lp869
F0.10190317250835121
aF0.2329952809400284
aF0.11295925737755512
aF0.3891759853451065
aF0.5921158340727274
aF0.6940341230290271
aF0.1275050098715842
aa(lp870
F0.10186386007708059
aF0.2337083990145299
aF0.11367638911539202
aF0.38918864301573725
aF0.5921236334537006
aF0.6940050468487391
aF0.12758839211164918
aa(lp871
F0.10182766217328162
aF0.23434246435891784
aF0.11427663354795818
aF0.389187225169772
aF0.5921303236762376
aF0.6939836612061883
aF0.1276779602225148
aa(lp872
F0.10182105665850347
aF0.23489402512794927
aF0.11474975996565939
aF0.38919710278988157
aF0.5921508298209888
aF0.6939371371289763
aF0.1278055540088811
aa(lp873
F0.10183033093049107
aF0.23537283269073533
aF0.11511226838301826
aF0.38920378870839833
aF0.5921584501037936
aF0.6938987133247542
aF0.12795841696407503
aa(lp874
F0.10186409200762178
aF0.23576761324179654
aF0.11539813323126324
aF0.38918308252689837
aF0.592094307317741
aF0.6939627761031831
aF0.12797079705913172
aa(lp875
F0.10191067025146669
aF0.23643858828846037
aF0.1158973467155078
aF0.38913740397100116
aF0.591997792404749
aF0.6940715046880032
aF0.12796656203377818
aa(lp876
F0.10162152408146743
aF0.2375886341141634
aF0.117590038582446
aF0.3886257945015815
aF0.5920143267549783
aF0.6944338061280393
aF0.12747830274752234
aa(lp877
F0.10138376706654681
aF0.23843572979388022
aF0.11884266794842502
aF0.3881266347313808
aF0.5924623189161916
aF0.694508099769951
aF0.12650934918208287
aa(lp878
F0.10129425803846226
aF0.2393482991493298
aF0.11990927572710328
aF0.38812771705471566
aF0.592416394212662
aF0.694534003675758
aF0.12657886419179354
aa(lp879
F0.10124725823910505
aF0.24015246741023738
aF0.12071450268698491
aF0.38813730425455145
aF0.5924102829188416
aF0.6945123586163892
aF0.12669677765092582
aa(lp880
F0.10125030439326063
aF0.24138677712060946
aF0.12177340867522388
aF0.3881252850640552
aF0.5923514381332831
aF0.6945377745629062
aF0.1268692891939699
aa(lp881
F0.10124755337447128
aF0.2419330354753249
aF0.12220097597453089
aF0.38812222892521864
aF0.5923548872460204
aF0.6945046727579778
aF0.12704362434695143
aa(lp882
F0.10130089203456963
aF0.24277451680134707
aF0.12283312048502963
aF0.3880794004364001
aF0.592239631040526
aF0.694608802971567
aF0.12714247605073814
aa(lp883
F0.10131765189026609
aF0.2431309132980679
aF0.12310662004306001
aF0.3880546429970512
aF0.5921672881218019
aF0.6946782214922712
aF0.12717572689486453
aa(lp884
F0.1013439760052165
aF0.24345192030145918
aF0.1233403498958855
aF0.38804963831534944
aF0.5921063345685997
aF0.6947266054132678
aF0.1272104968075433
aa(lp885
F0.10122661067199928
aF0.24528783772077264
aF0.1253093718419026
aF0.38721188940277124
aF0.5920980254281266
aF0.6953028368501095
aF0.12665246171093505
aa(lp886
F0.10102915048374078
aF0.2460768831123739
aF0.1264494982954828
aF0.38736444408479337
aF0.5926965891230559
aF0.694788362876132
aF0.12620884086576029
aa(lp887
F0.10093655559364678
aF0.24741473730749058
aF0.12772613110920952
aF0.3880739157724306
aF0.5925020620178433
aF0.6943515394956822
aF0.12734159572438322
aa(lp888
F0.10093252849860032
aF0.24808739304437977
aF0.12832600206395983
aF0.388090302842124
aF0.5924973297380258
aF0.6943256689673714
aF0.12745468412824226
aa(lp889
F0.10094003602357962
aF0.24871883806874878
aF0.12888963971036754
aF0.38810901468532183
aF0.5924880499944583
aF0.6943027510043025
aF0.12756564302981627
aa(lp890
F0.10095058811568466
aF0.24927388084842383
aF0.12935270990249856
aF0.38810838511175677
aF0.5924827572109362
aF0.6942880936056471
aF0.12767187196523527
aa(lp891
F0.10099260377742286
aF0.24972025290886252
aF0.12965801634737387
aF0.38812210591430507
aF0.5924827446227732
aF0.6942472491604871
aF0.12785220083364632
aa(lp892
F0.10103775745088653
aF0.25011751043813857
aF0.12993849978786812
aF0.3880886208105968
aF0.5924241665476042
aF0.694303559520409
aF0.1279194923574795
aa(lp893
F0.1010730741040525
aF0.2504513381956653
aF0.130175012335561
aF0.388074878642298
aF0.592368946079728
aF0.6943497001755726
aF0.12796645714112007
aa(lp894
F0.10088131979145293
aF0.2514580380445955
aF0.13143479479994308
aF0.38804983679377075
aF0.5922192063691267
aF0.6944775711385197
aF0.12804155168300624
aa(lp895
F0.10066910383503647
aF0.25298267688248033
aF0.13308631519220254
aF0.3871423399779256
aF0.592162912176694
aF0.6952054685182575
aF0.1270954388683699
aa(lp896
F0.10047651184541403
aF0.2536718690286154
aF0.13404476939579116
aF0.3863163151983534
aF0.5921898936038762
aF0.6958122560355146
aF0.12615918070344265
aa(lp897
F0.10016725327262743
aF0.2543571992653305
aF0.1352568956504247
aF0.38658192940810515
aF0.5930226401914026
aF0.6950641170668739
aF0.12555649422300647
aa(lp898
F0.09980886226949631
aF0.25488615449276986
aF0.1363260659030745
aF0.3878818757137303
aF0.5927446452630044
aF0.6943363493862839
aF0.1268797459240901
aa(lp899
F0.0995800920477081
aF0.2551854117234076
aF0.13671001695716606
aF0.3867198796870404
aF0.5913074051305683
aF0.6959023779842228
aF0.1285424739473252
aa(lp900
F0.09982188360794592
aF0.2560164263333468
aF0.13680845378492287
aF0.3866872365866959
aF0.5915263472078547
aF0.6958283814898617
aF0.12803290644626034
aa(lp901
F0.09989250675056005
aF0.25642675349937316
aF0.13705819319321721
aF0.3866739147094025
aF0.5915157642789824
aF0.6958489721515811
aF0.12801012556960176
aa(lp902
F0.09997890573291165
aF0.2568192542112645
aF0.137288031764358
aF0.38664172991638535
aF0.5914921276117965
aF0.6958952929106386
aF0.1279647489168471
aa(lp903
F0.09977795970240311
aF0.2584683183366243
aF0.13910274981537551
aF0.3861136233594904
aF0.5917260303890101
aF0.6962232263044952
aF0.12668778145673673
aa(lp904
F0.09958157439244167
aF0.25920266734994785
aF0.1401593923166527
aF0.38629710047320653
aF0.5922682343398514
aF0.6957869723657079
aF0.1259895941897962
aa(lp905
F0.09911801393531292
aF0.25976037420885867
aF0.1414963973039244
aF0.3893114785516353
aF0.5920935339989201
aF0.6937861395301032
aF0.1285403137561355
aa(lp906
F0.09911524846928405
aF0.2605486410510359
aF0.14228802445460287
aF0.38903347130366966
aF0.5910634808803282
aF0.694756366027127
aF0.12888177388532437
aa(lp907
F0.09895728019559077
aF0.26091888848664935
aF0.14263897416284957
aF0.38592828681908664
aF0.5919917431299879
aF0.6960579542626166
aF0.12691909945529972
aa(lp908
F0.09890626210684994
aF0.26177181038562314
aF0.1427334402196418
aF0.38262047156187606
aF0.5940784944201599
aF0.6967719988355586
aF0.12321160192102006
aa(lp909
F0.09900407339171582
aF0.2622710473692995
aF0.14290084608268183
aF0.38246176485019784
aF0.5941632401494493
aF0.6967277558390194
aF0.12354544397226204
aa(lp910
F0.09910026122652679
aF0.2627018306846137
aF0.14314223175431307
aF0.38228209743296726
aF0.5940602694940845
aF0.696917279348098
aF0.12352772942506372
aa(lp911
F0.09915666704151369
aF0.26305791113530524
aF0.14336466957920263
aF0.38209612605791843
aF0.5939500138136125
aF0.6971250761782629
aF0.123460761806301
aa(lp912
F0.09901313671659542
aF0.26400445513532056
aF0.14470347471564615
aF0.3823596060675183
aF0.5937892581465445
aF0.6970872585369849
aF0.12363172142722788
aa(lp913
F0.09883021912997006
aF0.2654173302935223
aF0.14645410015876345
aF0.3830285290323344
aF0.5935237237408645
aF0.6968580057748878
aF0.12412757587075611
aa(lp914
F0.09862972600573236
aF0.2660123817267628
aF0.14747612641804425
aF0.38364711035975735
aF0.5938623536621739
aF0.6962430701536544
aF0.12404832477081205
aa(lp915
F0.09839291412885354
aF0.26664063954853867
aF0.14862825994024637
aF0.385425108138875
aF0.5933631693809394
aF0.6952314165715382
aF0.12657374392138157
aa(lp916
F0.09838271404715668
aF0.26728559817768827
aF0.1493195813537232
aF0.3842151312963039
aF0.5935130471768963
aF0.6957635882050489
aF0.12662553076609126
aa(lp917
F0.09826286991536426
aF0.2677587963456599
aF0.15005432594598994
aF0.38350323553008425
aF0.5936170906135756
aF0.696253305423523
aF0.12559997116340788
aa(lp918
F0.0981645409588981
aF0.2685066329996322
aF0.15100273376092727
aF0.3836875328090627
aF0.5941608456018511
aF0.695812274879284
aF0.1249081456427229
aa(lp919
F0.09819299560765599
aF0.2688918469260603
aF0.15138216877419383
aF0.3831384653273918
aF0.5945159422866152
aF0.6956703944824834
aF0.1256917379711767
aa(lp920
F0.0981906343325227
aF0.26918152393895456
aF0.15164185770694638
aF0.3833493747615164
aF0.5946942245973348
aF0.6951592445361665
aF0.12702622105862904
aa(lp921
F0.09818604124321012
aF0.27062142564532116
aF0.15312353761333036
aF0.38354519376885965
aF0.5941006957795769
aF0.6956165744712902
aF0.12670844064962172
aa(lp922
F0.09799868483386792
aF0.27133720332180616
aF0.15429192519895024
aF0.3828613071802401
aF0.5941926508712797
aF0.6961311900042102
aF0.12551366227674787
aa(lp923
F0.0978646032371214
aF0.27250896671236824
aF0.15577861963580086
aF0.38310196070576025
aF0.594672988002557
aF0.6957190808394458
aF0.12478736153725435
aa(lp924
F0.09784793976550127
aF0.27312101151214996
aF0.15656710962173132
aF0.3826247150130448
aF0.5948415930967628
aF0.6958357925768763
aF0.12479726099639259
aa(lp925
F0.09769835148717937
aF0.2735849190536252
aF0.1574684060524545
aF0.38272172604688043
aF0.5945691712024506
aF0.6958099094197853
aF0.12593709152016302
aa(lp926
F0.09767990871598764
aF0.27410568378218236
aF0.1581310371211977
aF0.38278782924982696
aF0.5945669419180987
aF0.6958005597052676
aF0.12579829279526183
aa(lp927
F0.09756055773146921
aF0.2744507397178483
aF0.15873861776488526
aF0.3829658859178322
aF0.5950819497322057
aF0.6953614453721415
aF0.12524800843148115
aa(lp928
F0.09752167223716596
aF0.27489842490776123
aF0.15924524807573082
aF0.38273333068601095
aF0.5951371278087273
aF0.6954239828850304
aF0.1253494344378626
aa(lp929
F0.09749822540381875
aF0.27524785152165293
aF0.15970543209680885
aF0.3827584881648967
aF0.5951135724564574
aF0.6954378081577683
aF0.1253077435777782
aa(lp930
F0.09733529499678029
aF0.276172136037271
aF0.16111681522046983
aF0.3824493983033318
aF0.5943459526645436
aF0.6962531180786924
aF0.12536722799198305
aa(lp931
F0.0969878602725815
aF0.2774442553308813
aF0.16304474989181195
aF0.3834736853808138
aF0.5951501315340793
aF0.6950958714881379
aF0.12484383443154361
aa(lp932
F0.09681549813354329
aF0.2780990543715949
aF0.16404416225544957
aF0.38215361357684263
aF0.5954677852624725
aF0.695657736432456
aF0.12424590973725835
aa(lp933
F0.09670382397509164
aF0.27915606268210363
aF0.16518322868653218
aF0.3815776441446573
aF0.5946515996455036
aF0.6965190991646262
aF0.12509644689980123
aa(lp934
F0.09658949160196728
aF0.2796161198636117
aF0.1659592984926876
aF0.38244381165206726
aF0.5946017281238994
aF0.6959853384221796
aF0.12565796649028885
aa(lp935
F0.09641732966517075
aF0.2800060553172394
aF0.16678966163200637
aF0.38212600596169366
aF0.5960924168164133
aF0.6949518782112719
aF0.12528141582994776
aa(lp936
F0.09645094817761551
aF0.28048786253284497
aF0.16713052327233455
aF0.38111373538142373
aF0.5966473403234764
aF0.6950618059900261
aF0.12511337994964045
aa(lp937
F0.09653294242169208
aF0.28080899049319
aF0.16719447544938879
aF0.38081125445152547
aF0.596713733880382
aF0.6951160404938105
aF0.1254161015571586
aa(lp938
F0.09664957438733235
aF0.2810873428249292
aF0.16721676061798038
aF0.38065655600474857
aF0.5966538563359266
aF0.6952260222666391
aF0.12556090177032808
aa(lp939
F0.09682317656921507
aF0.28174426132334357
aF0.16722420235859967
aF0.3805293630021948
aF0.5966618811786468
aF0.6953056095386292
aF0.12546757663084696
aa(lp940
F0.09681610149492148
aF0.28252551324101755
aF0.16825436950264633
aF0.38062581439389553
aF0.5966475875471573
aF0.6952945266908863
aF0.12530429699271076
aa(lp941
F0.09647041936212447
aF0.28328052547631566
aF0.1699685136681216
aF0.38008880592542477
aF0.5961431024346829
aF0.696106984391698
aF0.12482374497999961
aa(lp942
F0.09638245718248956
aF0.28397690510416673
aF0.1710028805507199
aF0.3802016470992619
aF0.5961121447403216
aF0.6961180751408294
aF0.12456582154960837
aa(lp943
F0.09612453213098693
aF0.284615351787793
aF0.17234640885971314
aF0.38085123838113
aF0.5962750986568419
aF0.6956363815397029
aF0.12449243199360244
aa(lp944
F0.09610452189814539
aF0.2852181592985925
aF0.17294829210809065
aF0.3807870946174182
aF0.5960176724706172
aF0.6959057672986282
aF0.12441577760091649
aa(lp945
F0.09605422950937414
aF0.2860914431306793
aF0.17401940473340557
aF0.38080991194249225
aF0.5959491926494326
aF0.6960289869045824
aF0.12398395112038145
aa(lp946
F0.09600655457900031
aF0.2864934091013208
aF0.17460159311139056
aF0.3808095688601927
aF0.5959533816371311
aF0.6960461594240153
aF0.12386841054465851
aa(lp947
F0.09591129842906504
aF0.2867942396462128
aF0.17514308102436627
aF0.3802122513492357
aF0.5961527103561056
aF0.6963128770297949
aF0.12324352778748439
aa(lp948
F0.09569820761822412
aF0.28836658015014005
aF0.17727736735747163
aF0.3810384522942791
aF0.5959699590095431
aF0.6959948737419946
aF0.12337196422286908
aa(lp949
F0.0954603742320127
aF0.28902262862042283
aF0.17847847649359502
aF0.38084092105247674
aF0.5972029189252827
aF0.6953730894194331
aF0.12151186357840375
aa(lp950
F0.09530094893458063
aF0.2901660535695125
aF0.1799006463378749
aF0.3793254050498338
aF0.5957591996110886
aF0.6974918439103891
aF0.12119546543093086
aa(lp951
F0.09515898373325932
aF0.2906157759960797
aF0.18062761463629373
aF0.38103403652783197
aF0.5957586644581705
aF0.696319385895535
aF0.12257238496655262
aa(lp952
F0.09524907146865436
aF0.29147479036968
aF0.18130602017836192
aF0.38091261841452456
aF0.5958711433288734
aF0.6963391183402765
aF0.12229059632538647
aa(lp953
F0.09521663303882999
aF0.2917812293178077
aF0.18155384876243844
aF0.3806768945000962
aF0.5966843528690161
aF0.6959313842278728
aF0.1213770714827262
aa(lp954
F0.09531713039337719
aF0.2921300781120004
aF0.18162200110338678
aF0.3802749456632604
aF0.5964491385009063
aF0.6963662110715199
aF0.12129917955298083
aa(lp955
F0.09540064580728436
aF0.2924277659753084
aF0.1816775883510352
aF0.37970494727064263
aF0.5961442792284434
aF0.6969756305863785
aF0.12108311909642107
aa(lp956
F0.09548192085207319
aF0.2926566657708653
aF0.18168409796686052
aF0.3797179983194564
aF0.5962229272676985
aF0.6968725724636906
aF0.12124801235665746
aa(lp957
F0.09541208030035175
aF0.2942346312998876
aF0.1837083513542807
aF0.3802045849556704
aF0.5960768534782585
aF0.6968629274240687
aF0.12049447584060562
aa(lp958
F0.09506012167676059
aF0.29470089600982996
aF0.18494473750568224
aF0.3825254405826969
aF0.5960008568313516
aF0.695407215558917
aF0.12192649634883446
aa(lp959
F0.09503665343719486
aF0.2958666836078523
aF0.18627438737257887
aF0.38242727511195274
aF0.594958650104129
aF0.6963629618434519
aF0.12186964055635346
aa(lp960
F0.09473172919047956
aF0.2961400268327108
aF0.18702735266298645
aF0.3797149118217442
aF0.595343594016746
aF0.6981023851632592
aF0.11847215129640268
aa(lp961
F0.0945807954961555
aF0.2965278861877507
aF0.18771535287651528
aF0.3805885738856006
aF0.5968138581387696
aF0.6964813824289546
aF0.11781018670341563
aa(lp962
F0.09473733847124538
aF0.2969651573153138
aF0.18792171560738502
aF0.3806178101757044
aF0.5966449964559501
aF0.6965505804773794
aF0.11816141340453158
aa(lp963
F0.09486774971356027
aF0.29728835425475575
aF0.18793226122325662
aF0.3806630778234874
aF0.5965365222022297
aF0.6965997176815871
aF0.11827354812785126
aa(lp964
F0.09500491531495575
aF0.29759816639419934
aF0.1879469099242471
aF0.3807337729796739
aF0.5963917721467838
aF0.6966594168873841
aF0.11842425887634139
aa(lp965
F0.09509941301167818
aF0.2978509357661693
aF0.1879551163250927
aF0.3807551355129508
aF0.5963251267767989
aF0.6966936600801311
aF0.11848972090143566
aa(lp966
F0.09541109684863852
aF0.299066493830631
aF0.187974595074807
aF0.38060184327428265
aF0.5963700371120353
aF0.6967644592989315
aF0.11833978193775514
aa(lp967
F0.09554544950297256
aF0.29959066631146464
aF0.1879940464013558
aF0.3805392081449057
aF0.5963711371121354
aF0.6968065379134535
aF0.11828789712009323
aa(lp968
F0.09576490367119367
aF0.30047513603089204
aF0.18801708208320927
aF0.38041568355550465
aF0.5964072312327642
aF0.6968629429085028
aF0.118170897598212
aa(lp969
F0.09587771278332208
aF0.300843979681778
aF0.1880268019993497
aF0.38033944560025923
aF0.5964661725809298
aF0.6968459552061861
aF0.11821897394209775
aa(lp970
F0.09604438762726786
aF0.30147731751052254
aF0.18804970403203317
aF0.38013007204417415
aF0.596606644813316
aF0.696822407648299
aF0.1183223220339971
aa(lp971
F0.09611725480950123
aF0.3017532209586228
aF0.1880530775063792
aF0.3801358436119091
aF0.5966320906188034
aF0.6967990921520973
aF0.11831278046479517
aa(lp972
F0.0961849816054185
aF0.302006571661112
aF0.1880614713357007
aF0.3801089251228126
aF0.5966298269796335
aF0.6968183831660744
aF0.11829706455382157
aa(lp973
F0.09625614187817555
aF0.30222081976790593
aF0.18807427357048392
aF0.37998399246288855
aF0.5966672578472371
aF0.6968454706610561
aF0.11835006930371306
aa(lp974
F0.09631680166558643
aF0.3024110616748664
aF0.18808306977384748
aF0.37987517995687264
aF0.5967141251439025
aF0.6968572548474133
aF0.11839369439716001
aa(lp975
F0.09656870781702848
aF0.30355357727990373
aF0.18810624261468958
aF0.3796399076059286
aF0.59684286259204
aF0.6969209797593413
aF0.11812402760311404
aa(lp976
F0.09667744220149804
aF0.3040420968739392
aF0.1881160262999288
aF0.3795392302998206
aF0.5968950915127649
aF0.6969500041336257
aF0.11801234736046451
aa(lp977
F0.09677832160992933
aF0.3044836877308893
aF0.18812333115894625
aF0.3794486447356837
aF0.5969386945828209
aF0.6969781278446012
aF0.11791696325909014
aa(lp978
F0.0968619704343508
aF0.30487809568566193
aF0.18814520961868691
aF0.37934935577379153
aF0.596979216094208
aF0.697011756638469
aF0.11783247826176767
aa(lp979
F0.09695591941649911
aF0.3052428009782113
aF0.18814885723138725
aF0.3792689806743134
aF0.5969637856367715
aF0.6970756534646696
aF0.11779139307812693
aa(lp980
F0.09701962372746925
aF0.30556186638410143
aF0.18816526591856392
aF0.3791986069693745
aF0.5970066123765413
aF0.697091564938659
aF0.11770671749115766
aa(lp981
F0.09710832382611762
aF0.3058305679983074
aF0.18816914885001693
aF0.37903972499067057
aF0.5971159794620244
aF0.6970743486375288
aF0.11776564194054726
aa(lp982
F0.09721352425884294
aF0.30632022842714085
aF0.18818724147204627
aF0.3789249473928821
aF0.5971863788532829
aF0.6970945235234705
aF0.11765856717209414
aa(lp983
F0.09725961334100491
aF0.3065301105777323
aF0.18819115361246286
aF0.3788822165310062
aF0.5972156863513761
aF0.6971007807593989
aF0.11761033728819467
aa(lp984
F0.09739487791225038
aF0.30714219608060245
aF0.18820106673671116
aF0.37875914669477134
aF0.597301649451466
aF0.6971196786577748
aF0.11745808608047165
aa(lp985
F0.0975086136349409
aF0.3076920448598939
aF0.18822105752329935
aF0.3786427671472128
aF0.5973737707446811
aF0.6971457778156616
aF0.11731153987216772
aa(lp986
F0.097624402780013
aF0.3081891635646834
aF0.1882195335336491
aF0.3785478867236712
aF0.5974461602600765
aF0.6971542053709103
aF0.1171989632257388
aa(lp987
F0.09785644461107057
aF0.30899218478890206
aF0.18828466329355764
aF0.37816000091912316
aF0.5976903296803153
aF0.6971515917808567
aF0.11722176243728213
aa(lp988
F0.09795774339149793
aF0.3093350538770666
aF0.18829769920105802
aF0.37798172877399167
aF0.5978035242321833
aF0.697144873633768
aF0.11725947422176156
aa(lp989
F0.09809224556277157
aF0.30995531620634886
aF0.18831506145886848
aF0.37785320954962826
aF0.5978825781925043
aF0.6971712200161858
aF0.1171138963064234
aa(lp990
F0.09815345863466318
aF0.310215553546422
aF0.1883271043135793
aF0.3777344444766425
aF0.5979543874656119
aF0.6971722997068588
aF0.11712397059524914
aa(lp991
F0.0982054096319625
aF0.31045400495339964
aF0.188334496058501
aF0.3776848359332112
aF0.5979844840747306
aF0.6971824933772317
aF0.1170696051086183
aa(lp992
F0.09825158356644387
aF0.3106684150417694
aF0.188341270404505
aF0.37764040265633164
aF0.598011540907469
aF0.6971917582573977
aF0.11701955153305188
aa(lp993
F0.09846038225751075
aF0.3113052021325656
aF0.18840120261433999
aF0.3774046515800157
aF0.5978222193264237
aF0.6974665910513166
aF0.11710968112266311
aa(lp994
F0.09867655479987325
aF0.3123447102468636
aF0.18848089014137567
aF0.37737234395880603
aF0.5979335554471077
aF0.6974730501725025
aF0.11660583848368446
aa(lp995
F0.09874303596492462
aF0.31275838837343356
aF0.18846221347919612
aF0.3774766655821599
aF0.5982914781891876
aF0.6971364823735249
aF0.11644483247889993
aa(lp996
F0.09889963250419337
aF0.31351679953189965
aF0.18848945384177246
aF0.37727006954911646
aF0.5983062453781353
aF0.6972629160793562
aF0.11628137092602642
aa(lp997
F0.09896957627205005
aF0.3138476406865035
aF0.18850204051928782
aF0.3771826068234738
aF0.5983498251901431
aF0.6972884772793935
aF0.11618755207920925
aa(lp998
F0.0990363738625053
aF0.3141466137001533
aF0.18850699945148036
aF0.3771020219847903
aF0.5983928266043429
aF0.697309272465911
aF0.11610283638442885
aa(lp999
F0.09909096805483147
aF0.31441490266106176
aF0.18852116444096184
aF0.37702694111241614
aF0.5984267036314099
aF0.6973341503808328
aF0.11602262179808553
aa(lp1000
F0.0991455377646191
aF0.31465643772431695
aF0.18852508679922747
aF0.3769690914685701
aF0.5984600220248231
aF0.6973467448120361
aF0.11596302693301232
aa(lp1001
F0.09919216312246643
aF0.3148737095751074
aF0.188531990666902
aF0.3769131552977835
aF0.5984889851604143
aF0.6973620782798512
aF0.11590314828481971
aa(lp1002
F0.09940984763644028
aF0.3154245951933128
aF0.18858630298463686
aF0.3762809272335569
aF0.5988758988938454
aF0.6973103384650915
aF0.11626957209021883
aa(lp1003
F0.09978301481435747
aF0.3163485432941667
aF0.18864292420419365
aF0.3753614179512454
aF0.5994548180133786
aF0.6972159181126949
aF0.11682333073684278
aa(lp1004
F0.09988900698558412
aF0.3167916551880602
aF0.1886552924381312
aF0.37505395522152113
aF0.5996485302751131
aF0.6971911851336897
aF0.11696419188568452
aa(lp1005
F0.0999703548213664
aF0.3172015402190012
aF0.18866742595274968
aF0.374862985997334
aF0.5997649378262006
aF0.6971899652605019
aF0.11698680875874953
aa(lp1006
F0.10004690011886969
aF0.31756634253759936
aF0.1886803674681407
aF0.3747852946311465
aF0.5998102561656836
aF0.6972079804006781
aF0.11689598621128856
aa(lp1007
F0.10012115311502984
aF0.3178959274139879
aF0.18868486438558874
aF0.3747179477060528
aF0.5998541717429144
aF0.6972187041047009
aF0.11682256184550739
aa(lp1008
F0.10018369160435486
aF0.31819184349245117
aF0.1886951769393382
aF0.3746549492351641
aF0.5998908173898616
aF0.6972331048150785
aF0.11675047655083112
aa(lp1009
F0.1002439407438408
aF0.31845913121591507
aF0.1886992623168641
aF0.3746000168636575
aF0.5999260798680788
aF0.6972420957258814
aF0.11669184207839065
aa(lp1010
F0.10029508686710803
aF0.31869911307701765
aF0.18870722598420947
aF0.374549089040615
aF0.5999558339365587
aF0.6972534366549282
aF0.11663456733415628
aa(lp1011
F0.10049371844179866
aF0.3192862886821699
aF0.18874295281915832
aF0.37359276288752236
aF0.60055847054875
aF0.697112503455449
aF0.11743989312107944
aa(lp1012
F0.10062488326856706
aF0.31985564102055963
aF0.18875266662103457
aF0.3734504318890464
aF0.6006517821493382
aF0.6971271397327806
aF0.11732843888291036
aa(lp1013
F0.10073199756194756
aF0.32037201898461715
aF0.18877106255057866
aF0.37334043181899046
aF0.6007160905121056
aF0.6971532088637578
aF0.11719429994682934
aa(lp1014
F0.10083586209627554
aF0.32083870998941477
aF0.18877801645330627
aF0.3732446543203862
aF0.6007782502345327
aF0.6971691952722106
aF0.1170855893348416
aa(lp1015
F0.10092348642924753
aF0.32125783570813254
aF0.18879314488764398
aF0.3731551457161639
aF0.6008300205280249
aF0.6971902765464102
aF0.11697966467288855
aa(lp1016
F0.10100856501294869
aF0.3216365579444317
aF0.1887982973283932
aF0.37307748371049
aF0.6008803546700359
aF0.6972028095533592
aF0.11689410964955957
aa(lp1017
F0.10114854271984786
aF0.32228358442496496
aF0.188815768736526
aF0.37294122890157627
aF0.600962134661814
aF0.6972309109485954
aF0.1167407782477467
aa(lp1018
F0.10120930891330299
aF0.3225597911396801
aF0.18882187063371056
aF0.3728837249848605
aF0.6009975207031584
aF0.6972417990952029
aF0.11667725290113957
aa(lp1019
F0.10131002317985699
aF0.3230322351360165
aF0.1888391065738835
aF0.37278155136105307
aF0.6010548936752184
aF0.6972655802189189
aF0.11656603448643472
aa(lp1020
F0.10144046846709964
aF0.32365403450014146
aF0.18885876576745347
aF0.37264990587295943
aF0.601133994023256
aF0.6972949018402814
aF0.11640355986856554
aa(lp1021
F0.10156998096226494
aF0.3242157788394747
aF0.18885706162246318
aF0.37254035453820095
aF0.6012136779767432
aF0.6973064075297397
aF0.11627369294985414
aa(lp1022
F0.10167541822565257
aF0.32472019488565346
aF0.18887477761713473
aF0.372433098177349
aF0.6012765282036143
aF0.6973312650691693
aF0.11614314775509187
aa(lp1023
F0.10177723270303268
aF0.32517603121213196
aF0.18888156231991934
aF0.37233930533282283
aF0.6013371845624166
aF0.697346707132873
aF0.11603707260076965
aa(lp1024
F0.10194636673745289
aF0.3259551379733195
aF0.18890137562055415
aF0.37217611818789514
aF0.6014366421515824
aF0.6973792730817955
aF0.11584926414926532
aa(lp1025
F0.10201965701680599
aF0.32628779069596237
aF0.1889086239026363
aF0.3721069956191307
aF0.6014794670699419
aF0.6973921530210635
aF0.11577141015470382
aa(lp1026
F0.10214173584631953
aF0.32685692028343816
aF0.18892828501864334
aF0.3719846063505208
aF0.6015493141662445
aF0.6974196619602756
aF0.1156360254228068
aa(lp1027
F0.1021958263612418
aF0.3270999097609694
aF0.18893336421969043
aF0.3719341640162917
aF0.6015804919223369
aF0.6974288044016964
aF0.11558093340513179
aa(lp1028
F0.10224323392478668
aF0.32731872286213964
aF0.18894100539081923
aF0.37188700521483825
aF0.6016072667910112
aF0.6974392161032305
aF0.11553047969215473
aa(lp1029
F0.10248906050490292
aF0.3285006325327623
aF0.18896383596741886
aF0.3713078859671221
aF0.6019700178599676
aF0.6974188522961244
aF0.11562653622007976
aa(lp1030
F0.10259887792295741
aF0.3290017955357768
aF0.18897346688097738
aF0.3712046814376709
aF0.6020357812954984
aF0.6974374105363501
aF0.11550351034936784
aa(lp1031
F0.10278580935045722
aF0.3298599474682484
aF0.18899411880747885
aF0.37102543739719873
aF0.6021459186966621
aF0.6974722532959883
aF0.11529472357132037
aa(lp1032
F0.10286673618876951
aF0.3302263849064093
aF0.18900183319479497
aF0.3709493526960623
aF0.6021932129444968
aF0.6974861966553865
aF0.11520814855365039
aa(lp1033
F0.10293804664392686
aF0.33055647546665606
aF0.18901287344715023
aF0.3708785031127562
aF0.6022340989253282
aF0.6975015555891583
aF0.11512951824420756
aa(lp1034
F0.10300185305264059
aF0.3308533586158706
aF0.18902292582279498
aF0.37081534547060346
aF0.6022705980717762
aF0.6975154878297604
aF0.11505759644366655
aa(lp1035
F0.10306209776740083
aF0.3311214448002531
aF0.1890283772778679
aF0.37075902517493015
aF0.6023051304244434
aF0.6975254274364764
aF0.11499805735442054
aa(lp1036
F0.10311439396559019
aF0.3313622395412004
aF0.18903603783466216
aF0.37070805310503585
aF0.6023348157213274
aF0.6975362885758852
aF0.11494100770746682
aa(lp1037
F0.1031631695268902
aF0.3315796083325929
aF0.18904099793799986
aF0.3706620687739158
aF0.6023624773846479
aF0.6975447134121872
aF0.1148932086851977
aa(lp1038
F0.1032990302366345
aF0.3321955534493156
aF0.18904978411813045
aF0.37053570249877243
aF0.6024451368895645
aF0.6975655788934744
aF0.11474063515105226
aa(lp1039
F0.10341545222358078
aF0.33274926177589764
aF0.1890683403798411
aF0.37041847229022834
aF0.6025144915627447
aF0.6975918255126178
aF0.11459532198582129
aa(lp1040
F0.1035311850166934
aF0.33324988705358066
aF0.18906793198349284
aF0.37031942991934275
aF0.6025843935392143
aF0.6976028717963338
aF0.1144805736738691
aa(lp1041
F0.10371504206218979
aF0.3341053167916736
aF0.18909426331381962
aF0.3701372363152479
aF0.6026915164717446
aF0.6976417060142527
aF0.11426903471817106
aa(lp1042
F0.10379594604267628
aF0.33447067020467813
aF0.18910205189928586
aF0.370061311180142
aF0.6027385533261908
aF0.6976555197127393
aF0.11418247727314551
aa(lp1043
F0.10386725782585171
aF0.33479973970627924
aF0.1891127924225638
aF0.3699906259308037
aF0.6027792985977235
aF0.6976706600262695
aF0.11410391774114616
aa(lp1044
F0.10393116230407279
aF0.33509576549810655
aF0.18912279828571643
aF0.3699277122165732
aF0.6028156310857028
aF0.6976843730272568
aF0.11403209323046434
aa(lp1045
F0.10399133594724674
aF0.3353630392687555
aF0.18912817309957247
aF0.3698714291846955
aF0.6028499990679654
aF0.6976942505472805
aF0.1139725284877599
aa(lp1046
F0.10404373920907722
aF0.33560314847255956
aF0.18913577981374308
aF0.36982067726127643
aF0.6028795534051066
aF0.6977049199035533
aF0.11391556302124126
aa(lp1047
F0.10418537105822273
aF0.33623986625416563
aF0.18914278336143125
aF0.369690212330547
aF0.6029657552100586
aF0.6977250449740198
aF0.11375942407977087
aa(lp1048
F0.10431212315952176
aF0.3368130292898347
aF0.18915134354107357
aF0.36957314906118677
aF0.6030420069304855
aF0.6977442983348813
aF0.11361742609043039
aa(lp1049
F0.10442108230595121
aF0.33732865295152514
aF0.1891690184953002
aF0.36946349983294663
aF0.6031059347490427
aF0.6977688715623439
aF0.11348372412062924
aa(lp1050
F0.10452559184354748
aF0.33779463537847154
aF0.1891760081046024
aF0.3693667388564435
aF0.6031675762162316
aF0.6977845443264975
aF0.11337467498103201
aa(lp1051
F0.10461485195550924
aF0.33821322644973917
aF0.18919066207799767
aF0.36927752391161073
aF0.6032189908726635
aF0.6978044639271227
aF0.11326910217555373
aa(lp1052
F0.1047005639303144
aF0.3385914371564721
aF0.18919598279363808
aF0.3691990678208273
aF0.6032688336491979
aF0.6978168206269391
aF0.11318324751428155
aa(lp1053
F0.10484253426413881
aF0.3392377034171659
aF0.18921366418825902
aF0.36906246069005
aF0.6033497155318484
aF0.6978440202459011
aF0.11302983802554678
aa(lp1054
F0.10490228811344582
aF0.33951351272635527
aF0.1892234876852887
aF0.3690026850184483
aF0.6033832035478657
aF0.6978572573461141
aF0.11296449218604165
aa(lp1055
F0.1050066968689507
aF0.3399855707773182
aF0.18923686402916892
aF0.3689025877353872
aF0.6034417007547945
aF0.697877262467688
aF0.11285531038857576
aa(lp1056
F0.10513872430249094
aF0.3406059998477497
aF0.1892552079009633
aF0.36877105992095593
aF0.6035206048092786
aF0.6979047336331339
aF0.11269324606151943
aa(lp1057
F0.1052682892902223
aF0.3411664823345224
aF0.1892547226234541
aF0.36865978396422716
aF0.6035988718265446
aF0.6979169709080721
aF0.11256228202942987
aa(lp1058
F0.10537535921652919
aF0.3416699189927447
aF0.18927193725367772
aF0.368552767884871
aF0.6036612359271339
aF0.6979405393984004
aF0.11243208166531365
aa(lp1059
F0.10547777574684059
aF0.34212488298585453
aF0.1892789679351681
aF0.3684580237523589
aF0.6037213217727151
aF0.6979557153778482
aF0.11232573053805599
aa(lp1060
F0.10564890166907182
aF0.34290258110798855
aF0.18929916553865506
aF0.3682942985805398
aF0.6038196056432001
aF0.6979873356026944
aF0.11213774035626946
aa(lp1061
F0.10572101152280783
aF0.3432345603081799
aF0.18931052632224707
aF0.36822260845274574
aF0.6038603123311704
aF0.6980027670404639
aF0.11205789137500802
aa(lp1062
F0.10578918020564715
aF0.34353380510139353
aF0.18931544466117928
aF0.368161044451171
aF0.6038991360410655
aF0.6980125915075627
aF0.11198973584384331
aa(lp1063
F0.10584616534167968
aF0.34380279233495403
aF0.1893280319189155
aF0.36810180057003555
aF0.6039305222299447
aF0.6980273151366408
aF0.11192343838221246
aa(lp1064
F0.10590187616585955
aF0.3440457437091694
aF0.18933205504384507
aF0.36805094464773636
aF0.6039619748418874
aF0.6980354348019738
aF0.11187031263840962
aa(lp1065
F0.10604358526951357
aF0.34468362866142765
aF0.18934024392972879
aF0.36791941760952684
aF0.6040475238447932
aF0.6980560916569861
aF0.11171205836172711
aa(lp1066
F0.10628241557109697
aF0.34577522105052766
aF0.18936465743650005
aF0.3676915845232198
aF0.6041882399750963
aF0.6980982146952999
aF0.11143765963907443
aa(lp1067
F0.10638583679219832
aF0.3462415814085249
aF0.18937440141672585
aF0.3675945035507867
aF0.6042483307009753
aF0.698115461278646
aF0.111324024936394
aa(lp1068
F0.10647743492657052
aF0.346661773080405
aF0.18938722305635158
aF0.3675043758507497
aF0.6043007839368704
aF0.6981338301389537
aF0.11122163224548283
aa(lp1069
F0.1065593054150396
aF0.34703982725925964
aF0.18940028613463666
aF0.36742388618264227
aF0.6043469935311898
aF0.6981511503267447
aF0.11112772187757602
aa(lp1070
F0.10663738644026782
aF0.3473813522242355
aF0.1894053282713212
aF0.36735257821165
aF0.6043916643797134
aF0.6981622020670747
aF0.11105106444526558
aa(lp1071
F0.1067670154871988
aF0.34796490218124193
aF0.1894216874532402
aF0.36722891177915157
aF0.6044641286238878
aF0.6981863282520474
aF0.11091390626241697
aa(lp1072
F0.10682166067402998
aF0.3482139406263846
aF0.18943048309620436
aF0.36717489623964883
aF0.6044942747340383
aF0.6981979047608317
aF0.11085555093344186
aa(lp1073
F0.10691702879600246
aF0.34864014130888693
aF0.18944274112260373
aF0.3670844258206817
aF0.604546753486799
aF0.6982155563058949
aF0.11075777219193907
aa(lp1074
F0.10704593162560344
aF0.34924069602051117
aF0.1894601716599471
aF0.36695684493960645
aF0.6046231108083087
aF0.6982412914364449
aF0.11060138679790053
aa(lp1075
F0.10717182217925825
aF0.3497831552765459
aF0.18946036581505482
aF0.3668483346536595
aF0.6046983134146209
aF0.6982533053617921
aF0.11047429867023999
aa(lp1076
F0.1073739434412675
aF0.35071040925779084
aF0.1894873624243792
aF0.3666509479977345
aF0.6048148904187176
aF0.6982926420899345
aF0.11024253563491813
aa(lp1077
F0.10746274011931833
aF0.3511065245038537
aF0.18949591955451472
aF0.3665684302140721
aF0.6048656750532586
aF0.6983069845352101
aF0.11014743057420115
aa(lp1078
F0.10761374045642907
aF0.35178464723640157
aF0.1895140468762419
aF0.36642525948811827
aF0.6049507791761025
aF0.6983339583557698
aF0.10998530170188178
aa(lp1079
F0.10767743525545731
aF0.3520740975275559
aF0.18952393486111402
aF0.3663626795441404
aF0.6049861921767504
aF0.6983469545803392
aF0.1099164470908656
aa(lp1080
F0.10773597865514961
aF0.35233490459262695
aF0.18953121615178609
aF0.36630712770773843
aF0.6050187330133043
aF0.6983573893795894
aF0.1098561677485944
aa(lp1081
F0.10778846882255089
aF0.3525694584396119
aF0.1895384113453003
aF0.3662579944352843
aF0.6050475141486523
aF0.6983669652198916
aF0.10980058754095288
aa(lp1082
F0.10783680342636215
aF0.3527812000586908
aF0.1895433138974975
aF0.36621275607291887
aF0.6050743377317821
aF0.6983747857978002
aF0.10975391414340921
aasS'contact_bool'
p1083
(lp1084
I0
aI0
aI0
aI0
aI0
aI0
aI0
aI0
aI0
aI0
aI0
aI0
aI0
aI0
aI0
aI0
aI1
aI1
aI1
aI1
aI1
aI1
aI1
aI1
aI1
aI1
aI0
aI1
aI1
aI0
aI0
aI1
aI1
aI1
aI1
aI1
aI1
aI1
aI1
aI1
aI1
aI1
aI1
aI1
aI1
aI1
aI1
aI1
aI1
aI1
aI1
aI1
aI1
aI1
aI1
aI1
aI1
aI1
aI1
aI1
aI1
aI1
aI1
aI1
aI1
aI1
aI1
aI1
aI1
aI1
aI1
aI1
aI1
aI1
aI1
aI1
aI1
aI1
aI1
aI1
aI1
aI1
aI1
aI1
aI1
aI1
aI1
aI1
aI1
aI1
aI1
aI1
aI1
aI1
aI1
aI1
aI1
aI1
aI1
aI1
aI1
aI1
aI1
aI1
aI1
aI1
aI1
aI1
aI1
aI1
aI1
aI1
aI1
aI1
aI1
aI1
aI1
aI1
aI1
aI1
aI1
aI1
aI1
aI1
aI1
aI1
aI1
aI1
aI1
aI1
aI1
aI1
aI1
aI1
aI1
aI1
aI1
aI1
aI1
aI1
aI1
aI1
aI1
aI1
aI1
aI1
aI1
aI1
aI1
aI1
aI1
aI1
aI1
aI1
aI1
aI1
aI1
aI1
aI1
aI1
aI1
aI1
aI1
aI1
aI1
aI1
aI1
aI1
aI1
aI1
aI1
aI1
aI1
aI1
aI1
aI1
aI1
aI1
aI1
aI1
aI1
aI1
aI1
aI1
aI1
aI1
aI1
aI1
aI1
aI1
aI1
aI1
aI1
aI1
aI1
aI1
aI1
aI1
aI1
aI1
aI1
aI1
aI1
aI1
aI1
aI1
aI1
aI1
aI1
aI1
aI1
aI1
aI1
aI1
aI1
aI1
aI1
aI1
aI1
aI1
aI1
aI1
aI1
aI1
aI1
aI1
aI1
aI1
aI1
aI1
aI1
aI1
aI1
aI1
aI1
aI1
aI1
aI1
aI1
aI1
aI1
aI1
aI1
aI1
aI1
aI1
aI1
aI1
aI1
aI1
aI1
aI1
aI1
aI1
aI1
aI1
aI1
aI1
aI1
aI1
aI1
aI1
aI1
aI1
aI1
aI1
aI1
aI1
aI1
aI1
aI1
aI1
aI1
aI1
aI1
aI1
aI1
aI1
aI1
aI1
aI1
aI1
aI1
aI1
aI1
aI1
aI1
aI1
aI1
aI1
aI1
aI1
aI1
aI1
aI1
aI1
aI1
aI1
aI1
aI1
aI1
aI1
aI1
aI1
aI1
aI1
aI1
aI1
aI1
aI1
aI1
aI1
aI1
aI1
aI1
aI1
aI1
aI1
aI1
aI1
aI1
aI1
aI1
aI1
aI1
aI1
aI1
aI1
aI1
aI1
aI1
aI1
aI1
aI1
aI1
aI1
aI1
aI1
aI1
aI1
aI1
aI1
aI1
aI1
aI1
aI1
aI1
aI1
aI1
aI1
aI1
aI1
aI1
aI1
aI1
aI1
aI1
aI1
aI1
aI1
aI1
aI1
aI1
aI1
aI1
aI1
aI1
aI1
aI1
aI1
aI1
aI1
aI1
aI1
aI1
aI1
aI1
aI1
aI1
aI1
aI1
aI1
aI1
aI1
aI1
aI1
aI1
aI1
aI1
aI1
aI1
aI1
aI1
aI1
aI1
aI1
aI1
aI1
aI1
aI1
aI1
aI1
aI1
aI1
aI1
aI1
aI1
aI1
aI1
aI1
aI1
aI1
aI1
aI1
aI1
aI1
aI1
aI0
aI1
aI1
aI1
aI1
aI1
aI1
aI1
aI1
aI1
aI1
aI1
aI1
aI1
aI1
aI1
aI1
aI1
aI1
aI1
aI1
aI1
aI1
aI1
aI1
aI1
aI1
aI1
aI1
aI1
aI1
aI1
aI1
aI1
aI1
aI1
aI1
aI1
aI1
aI1
aI1
aI1
aI1
aI1
aI1
aI1
aI1
aI1
aI1
aI1
aI1
aI1
aI1
aI1
aI1
aI1
aI1
aI1
aI1
aI1
aI1
aI1
aI1
aI1
aI1
aI1
aI1
aI1
aI1
aI1
aI1
aI1
aI1
aI1
aI1
aI1
aI1
aI1
aI1
aI1
aI1
aI1
aI1
aI1
aI1
aI1
aI1
aI1
aI1
aI1
aI1
aI1
aI1
aI1
aI1
aI1
aI1
aI1
aI1
aI1
aI1
aI1
aI1
aI1
aI1
aI1
aI1
aI1
aI1
aI1
aI1
aI1
aI1
aI1
aI1
aI1
aI1
aI1
aI1
aI1
aI1
aI1
as.