(lp0
(lp1
F0.20851400681079346
aF-0.1696649246612768
aF0.067225615605422
aa(lp2
F0.1814939420970889
aF-0.13496316341751685
aF0.1509955034413703
aa(lp3
F0.2392335361455995
aF-0.049555878816081075
aF0.0767068757098347
aa(lp4
F0.22751506655678255
aF0.0017582178493151662
aF0.1954151772999161
aa(lp5
F0.29461603479115733
aF0.14521659297066924
aF0.07391585570392023
aa(lp6
F0.31135463030049715
aF0.15145492598466082
aF0.1998750799163598
aa(lp7
F0.5294447956870965
aF-0.12375770998193698
aF0.08031146902589792
aa(lp8
F0.44166122999140833
aF0.018758342309195056
aF0.05547307497692616
aa(lp9
F0.4251487870633722
aF0.014469098167789782
aF0.19727610454431246
aa(lp10
F0.4982580000432363
aF0.1709653154317991
aF0.09163917413105105
aa(lp11
F0.4830825667751404
aF0.15031300021274252
aF0.22030595073253048
aa.